
EV_DAQ_Unit.elf:     file format elf32-avr

Sections:
Idx Name          Size      VMA       LMA       File off  Algn
  0 .data         00000012  00800100  00000de8  00000e7c  2**0
                  CONTENTS, ALLOC, LOAD, DATA
  1 .text         00000de8  00000000  00000000  00000094  2**1
                  CONTENTS, ALLOC, LOAD, READONLY, CODE
  2 .bss          0000000f  00800112  00800112  00000e8e  2**0
                  ALLOC
  3 .comment      0000005c  00000000  00000000  00000e8e  2**0
                  CONTENTS, READONLY
  4 .note.gnu.avr.deviceinfo 00000040  00000000  00000000  00000eec  2**2
                  CONTENTS, READONLY
  5 .debug_aranges 00000048  00000000  00000000  00000f2c  2**0
                  CONTENTS, READONLY, DEBUGGING
  6 .debug_info   000003ae  00000000  00000000  00000f74  2**0
                  CONTENTS, READONLY, DEBUGGING
  7 .debug_abbrev 0000021c  00000000  00000000  00001322  2**0
                  CONTENTS, READONLY, DEBUGGING
  8 .debug_line   000001b5  00000000  00000000  0000153e  2**0
                  CONTENTS, READONLY, DEBUGGING
  9 .debug_frame  00000098  00000000  00000000  000016f4  2**2
                  CONTENTS, READONLY, DEBUGGING
 10 .debug_str    00000229  00000000  00000000  0000178c  2**0
                  CONTENTS, READONLY, DEBUGGING
 11 .debug_loc    000000fa  00000000  00000000  000019b5  2**0
                  CONTENTS, READONLY, DEBUGGING
 12 .debug_ranges 00000028  00000000  00000000  00001aaf  2**0
                  CONTENTS, READONLY, DEBUGGING

Disassembly of section .text:

00000000 <__vectors>:
   0:	0c 94 60 00 	jmp	0xc0	; 0xc0 <__ctors_end>
   4:	0c 94 7d 00 	jmp	0xfa	; 0xfa <__bad_interrupt>
   8:	0c 94 7d 00 	jmp	0xfa	; 0xfa <__bad_interrupt>
   c:	0c 94 7d 00 	jmp	0xfa	; 0xfa <__bad_interrupt>
  10:	0c 94 7d 00 	jmp	0xfa	; 0xfa <__bad_interrupt>
  14:	0c 94 7d 00 	jmp	0xfa	; 0xfa <__bad_interrupt>
  18:	0c 94 7d 00 	jmp	0xfa	; 0xfa <__bad_interrupt>
  1c:	0c 94 7d 00 	jmp	0xfa	; 0xfa <__bad_interrupt>
  20:	0c 94 7d 00 	jmp	0xfa	; 0xfa <__bad_interrupt>
  24:	0c 94 7d 00 	jmp	0xfa	; 0xfa <__bad_interrupt>
  28:	0c 94 7d 00 	jmp	0xfa	; 0xfa <__bad_interrupt>
  2c:	0c 94 ac 00 	jmp	0x158	; 0x158 <__vector_11>
  30:	0c 94 7d 00 	jmp	0xfa	; 0xfa <__bad_interrupt>
  34:	0c 94 7d 00 	jmp	0xfa	; 0xfa <__bad_interrupt>
  38:	0c 94 7d 00 	jmp	0xfa	; 0xfa <__bad_interrupt>
  3c:	0c 94 7d 00 	jmp	0xfa	; 0xfa <__bad_interrupt>
  40:	0c 94 7d 00 	jmp	0xfa	; 0xfa <__bad_interrupt>
  44:	0c 94 7d 00 	jmp	0xfa	; 0xfa <__bad_interrupt>
  48:	0c 94 7d 00 	jmp	0xfa	; 0xfa <__bad_interrupt>
  4c:	0c 94 7d 00 	jmp	0xfa	; 0xfa <__bad_interrupt>
  50:	0c 94 7d 00 	jmp	0xfa	; 0xfa <__bad_interrupt>
  54:	0c 94 7d 00 	jmp	0xfa	; 0xfa <__bad_interrupt>
  58:	0c 94 7d 00 	jmp	0xfa	; 0xfa <__bad_interrupt>
  5c:	0c 94 7d 00 	jmp	0xfa	; 0xfa <__bad_interrupt>
  60:	0c 94 7d 00 	jmp	0xfa	; 0xfa <__bad_interrupt>
  64:	0c 94 7d 00 	jmp	0xfa	; 0xfa <__bad_interrupt>
  68:	0c 94 7d 00 	jmp	0xfa	; 0xfa <__bad_interrupt>
  6c:	0c 94 7d 00 	jmp	0xfa	; 0xfa <__bad_interrupt>
  70:	0c 94 7d 00 	jmp	0xfa	; 0xfa <__bad_interrupt>
  74:	0c 94 7d 00 	jmp	0xfa	; 0xfa <__bad_interrupt>
  78:	0c 94 7d 00 	jmp	0xfa	; 0xfa <__bad_interrupt>
  7c:	0c 94 7d 00 	jmp	0xfa	; 0xfa <__bad_interrupt>
  80:	0c 94 7d 00 	jmp	0xfa	; 0xfa <__bad_interrupt>
  84:	0c 94 7d 00 	jmp	0xfa	; 0xfa <__bad_interrupt>
  88:	0c 94 7d 00 	jmp	0xfa	; 0xfa <__bad_interrupt>
  8c:	0c 94 7d 00 	jmp	0xfa	; 0xfa <__bad_interrupt>
  90:	0c 94 7d 00 	jmp	0xfa	; 0xfa <__bad_interrupt>
  94:	0c 94 7d 00 	jmp	0xfa	; 0xfa <__bad_interrupt>
  98:	0c 94 7d 00 	jmp	0xfa	; 0xfa <__bad_interrupt>
  9c:	0c 94 7d 00 	jmp	0xfa	; 0xfa <__bad_interrupt>
  a0:	0c 94 7d 00 	jmp	0xfa	; 0xfa <__bad_interrupt>
  a4:	0c 94 7d 00 	jmp	0xfa	; 0xfa <__bad_interrupt>
  a8:	0c 94 7d 00 	jmp	0xfa	; 0xfa <__bad_interrupt>
  ac:	0c 94 7d 00 	jmp	0xfa	; 0xfa <__bad_interrupt>
  b0:	0c 94 7d 00 	jmp	0xfa	; 0xfa <__bad_interrupt>

000000b4 <__trampolines_end>:
  b4:	63 64       	ori	r22, 0x43	; 67
  b6:	69 6e       	ori	r22, 0xE9	; 233
  b8:	6f 70       	andi	r22, 0x0F	; 15
  ba:	73 75       	andi	r23, 0x53	; 83
  bc:	78 58       	subi	r23, 0x88	; 136
  be:	5b 00       	.word	0x005b	; ????

000000c0 <__ctors_end>:
  c0:	11 24       	eor	r1, r1
  c2:	1f be       	out	0x3f, r1	; 63
  c4:	cf ef       	ldi	r28, 0xFF	; 255
  c6:	d8 e0       	ldi	r29, 0x08	; 8
  c8:	de bf       	out	0x3e, r29	; 62
  ca:	cd bf       	out	0x3d, r28	; 61

000000cc <__do_copy_data>:
  cc:	11 e0       	ldi	r17, 0x01	; 1
  ce:	a0 e0       	ldi	r26, 0x00	; 0
  d0:	b1 e0       	ldi	r27, 0x01	; 1
  d2:	e8 ee       	ldi	r30, 0xE8	; 232
  d4:	fd e0       	ldi	r31, 0x0D	; 13
  d6:	02 c0       	rjmp	.+4      	; 0xdc <__do_copy_data+0x10>
  d8:	05 90       	lpm	r0, Z+
  da:	0d 92       	st	X+, r0
  dc:	a2 31       	cpi	r26, 0x12	; 18
  de:	b1 07       	cpc	r27, r17
  e0:	d9 f7       	brne	.-10     	; 0xd8 <__do_copy_data+0xc>

000000e2 <__do_clear_bss>:
  e2:	21 e0       	ldi	r18, 0x01	; 1
  e4:	a2 e1       	ldi	r26, 0x12	; 18
  e6:	b1 e0       	ldi	r27, 0x01	; 1
  e8:	01 c0       	rjmp	.+2      	; 0xec <.do_clear_bss_start>

000000ea <.do_clear_bss_loop>:
  ea:	1d 92       	st	X+, r1

000000ec <.do_clear_bss_start>:
  ec:	a1 32       	cpi	r26, 0x21	; 33
  ee:	b2 07       	cpc	r27, r18
  f0:	e1 f7       	brne	.-8      	; 0xea <.do_clear_bss_loop>
  f2:	0e 94 7f 00 	call	0xfe	; 0xfe <main>
  f6:	0c 94 f2 06 	jmp	0xde4	; 0xde4 <_exit>

000000fa <__bad_interrupt>:
  fa:	0c 94 00 00 	jmp	0	; 0x0 <__vectors>

000000fe <main>:

int main(void) {
    /* Replace with your application code */
    while (1) {
        // TODO:
        printf("\nHello World");
  fe:	0f 2e       	mov	r0, r31
 100:	f0 e0       	ldi	r31, 0x00	; 0
 102:	cf 2e       	mov	r12, r31
 104:	f1 e0       	ldi	r31, 0x01	; 1
 106:	df 2e       	mov	r13, r31
 108:	f0 2d       	mov	r31, r0
        scanf("%d",&test);
 10a:	0f 2e       	mov	r0, r31
 10c:	f2 e1       	ldi	r31, 0x12	; 18
 10e:	ef 2e       	mov	r14, r31
 110:	f1 e0       	ldi	r31, 0x01	; 1
 112:	ff 2e       	mov	r15, r31
 114:	f0 2d       	mov	r31, r0
 116:	0e e0       	ldi	r16, 0x0E	; 14
 118:	11 e0       	ldi	r17, 0x01	; 1
        printf("\n%d", test);
 11a:	cd e0       	ldi	r28, 0x0D	; 13
 11c:	d1 e0       	ldi	r29, 0x01	; 1

int main(void) {
    /* Replace with your application code */
    while (1) {
        // TODO:
        printf("\nHello World");
 11e:	df 92       	push	r13
 120:	cf 92       	push	r12
 122:	0e 94 f5 00 	call	0x1ea	; 0x1ea <printf>
        scanf("%d",&test);
 126:	ff 92       	push	r15
 128:	ef 92       	push	r14
 12a:	1f 93       	push	r17
 12c:	0f 93       	push	r16
 12e:	0e 94 0b 01 	call	0x216	; 0x216 <scanf>
        printf("\n%d", test);
 132:	80 91 13 01 	lds	r24, 0x0113
 136:	8f 93       	push	r24
 138:	80 91 12 01 	lds	r24, 0x0112
 13c:	8f 93       	push	r24
 13e:	df 93       	push	r29
 140:	cf 93       	push	r28
 142:	0e 94 f5 00 	call	0x1ea	; 0x1ea <printf>
    }
 146:	8d b7       	in	r24, 0x3d	; 61
 148:	9e b7       	in	r25, 0x3e	; 62
 14a:	0a 96       	adiw	r24, 0x0a	; 10
 14c:	0f b6       	in	r0, 0x3f	; 63
 14e:	f8 94       	cli
 150:	9e bf       	out	0x3e, r25	; 62
 152:	0f be       	out	0x3f, r0	; 63
 154:	8d bf       	out	0x3d, r24	; 61
 156:	e3 cf       	rjmp	.-58     	; 0x11e <main+0x20>

00000158 <__vector_11>:
uint8_t systck_s = 0;
uint8_t systck_m = 0;
uint8_t systck_h = 0;
uint16_t systck_d = 0;

ISR(TIMER1_COMPA_vect) {
 158:	1f 92       	push	r1
 15a:	0f 92       	push	r0
 15c:	0f b6       	in	r0, 0x3f	; 63
 15e:	0f 92       	push	r0
 160:	11 24       	eor	r1, r1
 162:	2f 93       	push	r18
 164:	8f 93       	push	r24
 166:	9f 93       	push	r25
    /* Increment systck global vars to keep system time */
    systck_ms++;
 168:	80 91 19 01 	lds	r24, 0x0119
 16c:	90 91 1a 01 	lds	r25, 0x011A
 170:	01 96       	adiw	r24, 0x01	; 1
    if(systck_ms >= 1000) {
 172:	88 3e       	cpi	r24, 0xE8	; 232
 174:	23 e0       	ldi	r18, 0x03	; 3
 176:	92 07       	cpc	r25, r18
 178:	28 f4       	brcc	.+10     	; 0x184 <__vector_11+0x2c>
uint8_t systck_h = 0;
uint16_t systck_d = 0;

ISR(TIMER1_COMPA_vect) {
    /* Increment systck global vars to keep system time */
    systck_ms++;
 17a:	90 93 1a 01 	sts	0x011A, r25
 17e:	80 93 19 01 	sts	0x0119, r24
 182:	2b c0       	rjmp	.+86     	; 0x1da <__vector_11+0x82>
    if(systck_ms >= 1000) {
        systck_ms = 0;
 184:	10 92 1a 01 	sts	0x011A, r1
 188:	10 92 19 01 	sts	0x0119, r1
        systck_s++;
 18c:	80 91 18 01 	lds	r24, 0x0118
 190:	8f 5f       	subi	r24, 0xFF	; 255
        if(systck_s >= 60) {
 192:	8c 33       	cpi	r24, 0x3C	; 60
 194:	18 f4       	brcc	.+6      	; 0x19c <__vector_11+0x44>
ISR(TIMER1_COMPA_vect) {
    /* Increment systck global vars to keep system time */
    systck_ms++;
    if(systck_ms >= 1000) {
        systck_ms = 0;
        systck_s++;
 196:	80 93 18 01 	sts	0x0118, r24
 19a:	1f c0       	rjmp	.+62     	; 0x1da <__vector_11+0x82>
        if(systck_s >= 60) {
            systck_s = 0;
 19c:	10 92 18 01 	sts	0x0118, r1
            systck_m++;
 1a0:	80 91 17 01 	lds	r24, 0x0117
 1a4:	8f 5f       	subi	r24, 0xFF	; 255
            if(systck_m >= 60) {
 1a6:	8c 33       	cpi	r24, 0x3C	; 60
 1a8:	18 f4       	brcc	.+6      	; 0x1b0 <__vector_11+0x58>
    if(systck_ms >= 1000) {
        systck_ms = 0;
        systck_s++;
        if(systck_s >= 60) {
            systck_s = 0;
            systck_m++;
 1aa:	80 93 17 01 	sts	0x0117, r24
 1ae:	15 c0       	rjmp	.+42     	; 0x1da <__vector_11+0x82>
            if(systck_m >= 60) {
                systck_m = 0;
 1b0:	10 92 17 01 	sts	0x0117, r1
                systck_h++;
 1b4:	80 91 16 01 	lds	r24, 0x0116
 1b8:	8f 5f       	subi	r24, 0xFF	; 255
                if(systck_h >= 24) {
 1ba:	88 31       	cpi	r24, 0x18	; 24
 1bc:	18 f4       	brcc	.+6      	; 0x1c4 <__vector_11+0x6c>
        if(systck_s >= 60) {
            systck_s = 0;
            systck_m++;
            if(systck_m >= 60) {
                systck_m = 0;
                systck_h++;
 1be:	80 93 16 01 	sts	0x0116, r24
 1c2:	0b c0       	rjmp	.+22     	; 0x1da <__vector_11+0x82>
                if(systck_h >= 24) {
                    systck_h = 0;
 1c4:	10 92 16 01 	sts	0x0116, r1
                    systck_d++;                    
 1c8:	80 91 14 01 	lds	r24, 0x0114
 1cc:	90 91 15 01 	lds	r25, 0x0115
 1d0:	01 96       	adiw	r24, 0x01	; 1
 1d2:	90 93 15 01 	sts	0x0115, r25
 1d6:	80 93 14 01 	sts	0x0114, r24
                }
            }
        }        
    }
}
 1da:	9f 91       	pop	r25
 1dc:	8f 91       	pop	r24
 1de:	2f 91       	pop	r18
 1e0:	0f 90       	pop	r0
 1e2:	0f be       	out	0x3f, r0	; 63
 1e4:	0f 90       	pop	r0
 1e6:	1f 90       	pop	r1
 1e8:	18 95       	reti

000001ea <printf>:
 1ea:	a0 e0       	ldi	r26, 0x00	; 0
 1ec:	b0 e0       	ldi	r27, 0x00	; 0
 1ee:	eb ef       	ldi	r30, 0xFB	; 251
 1f0:	f0 e0       	ldi	r31, 0x00	; 0
 1f2:	0c 94 cb 06 	jmp	0xd96	; 0xd96 <__prologue_saves__+0x20>
 1f6:	ae 01       	movw	r20, r28
 1f8:	4b 5f       	subi	r20, 0xFB	; 251
 1fa:	5f 4f       	sbci	r21, 0xFF	; 255
 1fc:	fa 01       	movw	r30, r20
 1fe:	61 91       	ld	r22, Z+
 200:	71 91       	ld	r23, Z+
 202:	af 01       	movw	r20, r30
 204:	80 91 1d 01 	lds	r24, 0x011D
 208:	90 91 1e 01 	lds	r25, 0x011E
 20c:	0e 94 21 01 	call	0x242	; 0x242 <vfprintf>
 210:	e2 e0       	ldi	r30, 0x02	; 2
 212:	0c 94 e7 06 	jmp	0xdce	; 0xdce <__epilogue_restores__+0x20>

00000216 <scanf>:
 216:	a0 e0       	ldi	r26, 0x00	; 0
 218:	b0 e0       	ldi	r27, 0x00	; 0
 21a:	e1 e1       	ldi	r30, 0x11	; 17
 21c:	f1 e0       	ldi	r31, 0x01	; 1
 21e:	0c 94 cb 06 	jmp	0xd96	; 0xd96 <__prologue_saves__+0x20>
 222:	ae 01       	movw	r20, r28
 224:	4b 5f       	subi	r20, 0xFB	; 251
 226:	5f 4f       	sbci	r21, 0xFF	; 255
 228:	fa 01       	movw	r30, r20
 22a:	61 91       	ld	r22, Z+
 22c:	71 91       	ld	r23, Z+
 22e:	af 01       	movw	r20, r30
 230:	80 91 1b 01 	lds	r24, 0x011B
 234:	90 91 1c 01 	lds	r25, 0x011C
 238:	0e 94 73 04 	call	0x8e6	; 0x8e6 <vfscanf>
 23c:	e2 e0       	ldi	r30, 0x02	; 2
 23e:	0c 94 e7 06 	jmp	0xdce	; 0xdce <__epilogue_restores__+0x20>

00000242 <vfprintf>:
 242:	ac e0       	ldi	r26, 0x0C	; 12
 244:	b0 e0       	ldi	r27, 0x00	; 0
 246:	e7 e2       	ldi	r30, 0x27	; 39
 248:	f1 e0       	ldi	r31, 0x01	; 1
 24a:	0c 94 bb 06 	jmp	0xd76	; 0xd76 <__prologue_saves__>
 24e:	7c 01       	movw	r14, r24
 250:	6b 01       	movw	r12, r22
 252:	8a 01       	movw	r16, r20
 254:	fc 01       	movw	r30, r24
 256:	17 82       	std	Z+7, r1	; 0x07
 258:	16 82       	std	Z+6, r1	; 0x06
 25a:	83 81       	ldd	r24, Z+3	; 0x03
 25c:	81 ff       	sbrs	r24, 1
 25e:	bd c1       	rjmp	.+890    	; 0x5da <vfprintf+0x398>
 260:	ce 01       	movw	r24, r28
 262:	01 96       	adiw	r24, 0x01	; 1
 264:	4c 01       	movw	r8, r24
 266:	f7 01       	movw	r30, r14
 268:	93 81       	ldd	r25, Z+3	; 0x03
 26a:	f6 01       	movw	r30, r12
 26c:	93 fd       	sbrc	r25, 3
 26e:	85 91       	lpm	r24, Z+
 270:	93 ff       	sbrs	r25, 3
 272:	81 91       	ld	r24, Z+
 274:	6f 01       	movw	r12, r30
 276:	88 23       	and	r24, r24
 278:	09 f4       	brne	.+2      	; 0x27c <vfprintf+0x3a>
 27a:	ab c1       	rjmp	.+854    	; 0x5d2 <vfprintf+0x390>
 27c:	85 32       	cpi	r24, 0x25	; 37
 27e:	39 f4       	brne	.+14     	; 0x28e <vfprintf+0x4c>
 280:	93 fd       	sbrc	r25, 3
 282:	85 91       	lpm	r24, Z+
 284:	93 ff       	sbrs	r25, 3
 286:	81 91       	ld	r24, Z+
 288:	6f 01       	movw	r12, r30
 28a:	85 32       	cpi	r24, 0x25	; 37
 28c:	29 f4       	brne	.+10     	; 0x298 <vfprintf+0x56>
 28e:	b7 01       	movw	r22, r14
 290:	90 e0       	ldi	r25, 0x00	; 0
 292:	0e 94 09 06 	call	0xc12	; 0xc12 <fputc>
 296:	e7 cf       	rjmp	.-50     	; 0x266 <vfprintf+0x24>
 298:	51 2c       	mov	r5, r1
 29a:	31 2c       	mov	r3, r1
 29c:	20 e0       	ldi	r18, 0x00	; 0
 29e:	20 32       	cpi	r18, 0x20	; 32
 2a0:	a0 f4       	brcc	.+40     	; 0x2ca <vfprintf+0x88>
 2a2:	8b 32       	cpi	r24, 0x2B	; 43
 2a4:	69 f0       	breq	.+26     	; 0x2c0 <vfprintf+0x7e>
 2a6:	30 f4       	brcc	.+12     	; 0x2b4 <vfprintf+0x72>
 2a8:	80 32       	cpi	r24, 0x20	; 32
 2aa:	59 f0       	breq	.+22     	; 0x2c2 <vfprintf+0x80>
 2ac:	83 32       	cpi	r24, 0x23	; 35
 2ae:	69 f4       	brne	.+26     	; 0x2ca <vfprintf+0x88>
 2b0:	20 61       	ori	r18, 0x10	; 16
 2b2:	2c c0       	rjmp	.+88     	; 0x30c <vfprintf+0xca>
 2b4:	8d 32       	cpi	r24, 0x2D	; 45
 2b6:	39 f0       	breq	.+14     	; 0x2c6 <vfprintf+0x84>
 2b8:	80 33       	cpi	r24, 0x30	; 48
 2ba:	39 f4       	brne	.+14     	; 0x2ca <vfprintf+0x88>
 2bc:	21 60       	ori	r18, 0x01	; 1
 2be:	26 c0       	rjmp	.+76     	; 0x30c <vfprintf+0xca>
 2c0:	22 60       	ori	r18, 0x02	; 2
 2c2:	24 60       	ori	r18, 0x04	; 4
 2c4:	23 c0       	rjmp	.+70     	; 0x30c <vfprintf+0xca>
 2c6:	28 60       	ori	r18, 0x08	; 8
 2c8:	21 c0       	rjmp	.+66     	; 0x30c <vfprintf+0xca>
 2ca:	27 fd       	sbrc	r18, 7
 2cc:	27 c0       	rjmp	.+78     	; 0x31c <vfprintf+0xda>
 2ce:	30 ed       	ldi	r19, 0xD0	; 208
 2d0:	38 0f       	add	r19, r24
 2d2:	3a 30       	cpi	r19, 0x0A	; 10
 2d4:	78 f4       	brcc	.+30     	; 0x2f4 <vfprintf+0xb2>
 2d6:	26 ff       	sbrs	r18, 6
 2d8:	06 c0       	rjmp	.+12     	; 0x2e6 <vfprintf+0xa4>
 2da:	fa e0       	ldi	r31, 0x0A	; 10
 2dc:	5f 9e       	mul	r5, r31
 2de:	30 0d       	add	r19, r0
 2e0:	11 24       	eor	r1, r1
 2e2:	53 2e       	mov	r5, r19
 2e4:	13 c0       	rjmp	.+38     	; 0x30c <vfprintf+0xca>
 2e6:	8a e0       	ldi	r24, 0x0A	; 10
 2e8:	38 9e       	mul	r3, r24
 2ea:	30 0d       	add	r19, r0
 2ec:	11 24       	eor	r1, r1
 2ee:	33 2e       	mov	r3, r19
 2f0:	20 62       	ori	r18, 0x20	; 32
 2f2:	0c c0       	rjmp	.+24     	; 0x30c <vfprintf+0xca>
 2f4:	8e 32       	cpi	r24, 0x2E	; 46
 2f6:	21 f4       	brne	.+8      	; 0x300 <vfprintf+0xbe>
 2f8:	26 fd       	sbrc	r18, 6
 2fa:	6b c1       	rjmp	.+726    	; 0x5d2 <vfprintf+0x390>
 2fc:	20 64       	ori	r18, 0x40	; 64
 2fe:	06 c0       	rjmp	.+12     	; 0x30c <vfprintf+0xca>
 300:	8c 36       	cpi	r24, 0x6C	; 108
 302:	11 f4       	brne	.+4      	; 0x308 <vfprintf+0xc6>
 304:	20 68       	ori	r18, 0x80	; 128
 306:	02 c0       	rjmp	.+4      	; 0x30c <vfprintf+0xca>
 308:	88 36       	cpi	r24, 0x68	; 104
 30a:	41 f4       	brne	.+16     	; 0x31c <vfprintf+0xda>
 30c:	f6 01       	movw	r30, r12
 30e:	93 fd       	sbrc	r25, 3
 310:	85 91       	lpm	r24, Z+
 312:	93 ff       	sbrs	r25, 3
 314:	81 91       	ld	r24, Z+
 316:	6f 01       	movw	r12, r30
 318:	81 11       	cpse	r24, r1
 31a:	c1 cf       	rjmp	.-126    	; 0x29e <vfprintf+0x5c>
 31c:	98 2f       	mov	r25, r24
 31e:	9f 7d       	andi	r25, 0xDF	; 223
 320:	95 54       	subi	r25, 0x45	; 69
 322:	93 30       	cpi	r25, 0x03	; 3
 324:	28 f4       	brcc	.+10     	; 0x330 <vfprintf+0xee>
 326:	0c 5f       	subi	r16, 0xFC	; 252
 328:	1f 4f       	sbci	r17, 0xFF	; 255
 32a:	ff e3       	ldi	r31, 0x3F	; 63
 32c:	f9 83       	std	Y+1, r31	; 0x01
 32e:	0d c0       	rjmp	.+26     	; 0x34a <vfprintf+0x108>
 330:	83 36       	cpi	r24, 0x63	; 99
 332:	31 f0       	breq	.+12     	; 0x340 <vfprintf+0xfe>
 334:	83 37       	cpi	r24, 0x73	; 115
 336:	71 f0       	breq	.+28     	; 0x354 <vfprintf+0x112>
 338:	83 35       	cpi	r24, 0x53	; 83
 33a:	09 f0       	breq	.+2      	; 0x33e <vfprintf+0xfc>
 33c:	5b c0       	rjmp	.+182    	; 0x3f4 <vfprintf+0x1b2>
 33e:	22 c0       	rjmp	.+68     	; 0x384 <vfprintf+0x142>
 340:	f8 01       	movw	r30, r16
 342:	80 81       	ld	r24, Z
 344:	89 83       	std	Y+1, r24	; 0x01
 346:	0e 5f       	subi	r16, 0xFE	; 254
 348:	1f 4f       	sbci	r17, 0xFF	; 255
 34a:	44 24       	eor	r4, r4
 34c:	43 94       	inc	r4
 34e:	51 2c       	mov	r5, r1
 350:	54 01       	movw	r10, r8
 352:	15 c0       	rjmp	.+42     	; 0x37e <vfprintf+0x13c>
 354:	38 01       	movw	r6, r16
 356:	f2 e0       	ldi	r31, 0x02	; 2
 358:	6f 0e       	add	r6, r31
 35a:	71 1c       	adc	r7, r1
 35c:	f8 01       	movw	r30, r16
 35e:	a0 80       	ld	r10, Z
 360:	b1 80       	ldd	r11, Z+1	; 0x01
 362:	26 ff       	sbrs	r18, 6
 364:	03 c0       	rjmp	.+6      	; 0x36c <vfprintf+0x12a>
 366:	65 2d       	mov	r22, r5
 368:	70 e0       	ldi	r23, 0x00	; 0
 36a:	02 c0       	rjmp	.+4      	; 0x370 <vfprintf+0x12e>
 36c:	6f ef       	ldi	r22, 0xFF	; 255
 36e:	7f ef       	ldi	r23, 0xFF	; 255
 370:	c5 01       	movw	r24, r10
 372:	2c 87       	std	Y+12, r18	; 0x0c
 374:	0e 94 c0 05 	call	0xb80	; 0xb80 <strnlen>
 378:	2c 01       	movw	r4, r24
 37a:	83 01       	movw	r16, r6
 37c:	2c 85       	ldd	r18, Y+12	; 0x0c
 37e:	2f 77       	andi	r18, 0x7F	; 127
 380:	22 2e       	mov	r2, r18
 382:	17 c0       	rjmp	.+46     	; 0x3b2 <vfprintf+0x170>
 384:	38 01       	movw	r6, r16
 386:	f2 e0       	ldi	r31, 0x02	; 2
 388:	6f 0e       	add	r6, r31
 38a:	71 1c       	adc	r7, r1
 38c:	f8 01       	movw	r30, r16
 38e:	a0 80       	ld	r10, Z
 390:	b1 80       	ldd	r11, Z+1	; 0x01
 392:	26 ff       	sbrs	r18, 6
 394:	03 c0       	rjmp	.+6      	; 0x39c <vfprintf+0x15a>
 396:	65 2d       	mov	r22, r5
 398:	70 e0       	ldi	r23, 0x00	; 0
 39a:	02 c0       	rjmp	.+4      	; 0x3a0 <vfprintf+0x15e>
 39c:	6f ef       	ldi	r22, 0xFF	; 255
 39e:	7f ef       	ldi	r23, 0xFF	; 255
 3a0:	c5 01       	movw	r24, r10
 3a2:	2c 87       	std	Y+12, r18	; 0x0c
 3a4:	0e 94 b5 05 	call	0xb6a	; 0xb6a <strnlen_P>
 3a8:	2c 01       	movw	r4, r24
 3aa:	2c 85       	ldd	r18, Y+12	; 0x0c
 3ac:	20 68       	ori	r18, 0x80	; 128
 3ae:	22 2e       	mov	r2, r18
 3b0:	83 01       	movw	r16, r6
 3b2:	23 fc       	sbrc	r2, 3
 3b4:	1b c0       	rjmp	.+54     	; 0x3ec <vfprintf+0x1aa>
 3b6:	83 2d       	mov	r24, r3
 3b8:	90 e0       	ldi	r25, 0x00	; 0
 3ba:	48 16       	cp	r4, r24
 3bc:	59 06       	cpc	r5, r25
 3be:	b0 f4       	brcc	.+44     	; 0x3ec <vfprintf+0x1aa>
 3c0:	b7 01       	movw	r22, r14
 3c2:	80 e2       	ldi	r24, 0x20	; 32
 3c4:	90 e0       	ldi	r25, 0x00	; 0
 3c6:	0e 94 09 06 	call	0xc12	; 0xc12 <fputc>
 3ca:	3a 94       	dec	r3
 3cc:	f4 cf       	rjmp	.-24     	; 0x3b6 <vfprintf+0x174>
 3ce:	f5 01       	movw	r30, r10
 3d0:	27 fc       	sbrc	r2, 7
 3d2:	85 91       	lpm	r24, Z+
 3d4:	27 fe       	sbrs	r2, 7
 3d6:	81 91       	ld	r24, Z+
 3d8:	5f 01       	movw	r10, r30
 3da:	b7 01       	movw	r22, r14
 3dc:	90 e0       	ldi	r25, 0x00	; 0
 3de:	0e 94 09 06 	call	0xc12	; 0xc12 <fputc>
 3e2:	31 10       	cpse	r3, r1
 3e4:	3a 94       	dec	r3
 3e6:	f1 e0       	ldi	r31, 0x01	; 1
 3e8:	4f 1a       	sub	r4, r31
 3ea:	51 08       	sbc	r5, r1
 3ec:	41 14       	cp	r4, r1
 3ee:	51 04       	cpc	r5, r1
 3f0:	71 f7       	brne	.-36     	; 0x3ce <vfprintf+0x18c>
 3f2:	e5 c0       	rjmp	.+458    	; 0x5be <vfprintf+0x37c>
 3f4:	84 36       	cpi	r24, 0x64	; 100
 3f6:	11 f0       	breq	.+4      	; 0x3fc <vfprintf+0x1ba>
 3f8:	89 36       	cpi	r24, 0x69	; 105
 3fa:	39 f5       	brne	.+78     	; 0x44a <vfprintf+0x208>
 3fc:	f8 01       	movw	r30, r16
 3fe:	27 ff       	sbrs	r18, 7
 400:	07 c0       	rjmp	.+14     	; 0x410 <vfprintf+0x1ce>
 402:	60 81       	ld	r22, Z
 404:	71 81       	ldd	r23, Z+1	; 0x01
 406:	82 81       	ldd	r24, Z+2	; 0x02
 408:	93 81       	ldd	r25, Z+3	; 0x03
 40a:	0c 5f       	subi	r16, 0xFC	; 252
 40c:	1f 4f       	sbci	r17, 0xFF	; 255
 40e:	08 c0       	rjmp	.+16     	; 0x420 <vfprintf+0x1de>
 410:	60 81       	ld	r22, Z
 412:	71 81       	ldd	r23, Z+1	; 0x01
 414:	07 2e       	mov	r0, r23
 416:	00 0c       	add	r0, r0
 418:	88 0b       	sbc	r24, r24
 41a:	99 0b       	sbc	r25, r25
 41c:	0e 5f       	subi	r16, 0xFE	; 254
 41e:	1f 4f       	sbci	r17, 0xFF	; 255
 420:	2f 76       	andi	r18, 0x6F	; 111
 422:	72 2e       	mov	r7, r18
 424:	97 ff       	sbrs	r25, 7
 426:	09 c0       	rjmp	.+18     	; 0x43a <vfprintf+0x1f8>
 428:	90 95       	com	r25
 42a:	80 95       	com	r24
 42c:	70 95       	com	r23
 42e:	61 95       	neg	r22
 430:	7f 4f       	sbci	r23, 0xFF	; 255
 432:	8f 4f       	sbci	r24, 0xFF	; 255
 434:	9f 4f       	sbci	r25, 0xFF	; 255
 436:	20 68       	ori	r18, 0x80	; 128
 438:	72 2e       	mov	r7, r18
 43a:	2a e0       	ldi	r18, 0x0A	; 10
 43c:	30 e0       	ldi	r19, 0x00	; 0
 43e:	a4 01       	movw	r20, r8
 440:	0e 94 5a 06 	call	0xcb4	; 0xcb4 <__ultoa_invert>
 444:	a8 2e       	mov	r10, r24
 446:	a8 18       	sub	r10, r8
 448:	44 c0       	rjmp	.+136    	; 0x4d2 <vfprintf+0x290>
 44a:	85 37       	cpi	r24, 0x75	; 117
 44c:	29 f4       	brne	.+10     	; 0x458 <vfprintf+0x216>
 44e:	2f 7e       	andi	r18, 0xEF	; 239
 450:	b2 2e       	mov	r11, r18
 452:	2a e0       	ldi	r18, 0x0A	; 10
 454:	30 e0       	ldi	r19, 0x00	; 0
 456:	25 c0       	rjmp	.+74     	; 0x4a2 <vfprintf+0x260>
 458:	f2 2f       	mov	r31, r18
 45a:	f9 7f       	andi	r31, 0xF9	; 249
 45c:	bf 2e       	mov	r11, r31
 45e:	8f 36       	cpi	r24, 0x6F	; 111
 460:	c1 f0       	breq	.+48     	; 0x492 <vfprintf+0x250>
 462:	18 f4       	brcc	.+6      	; 0x46a <vfprintf+0x228>
 464:	88 35       	cpi	r24, 0x58	; 88
 466:	79 f0       	breq	.+30     	; 0x486 <vfprintf+0x244>
 468:	b4 c0       	rjmp	.+360    	; 0x5d2 <vfprintf+0x390>
 46a:	80 37       	cpi	r24, 0x70	; 112
 46c:	19 f0       	breq	.+6      	; 0x474 <vfprintf+0x232>
 46e:	88 37       	cpi	r24, 0x78	; 120
 470:	21 f0       	breq	.+8      	; 0x47a <vfprintf+0x238>
 472:	af c0       	rjmp	.+350    	; 0x5d2 <vfprintf+0x390>
 474:	2f 2f       	mov	r18, r31
 476:	20 61       	ori	r18, 0x10	; 16
 478:	b2 2e       	mov	r11, r18
 47a:	b4 fe       	sbrs	r11, 4
 47c:	0d c0       	rjmp	.+26     	; 0x498 <vfprintf+0x256>
 47e:	8b 2d       	mov	r24, r11
 480:	84 60       	ori	r24, 0x04	; 4
 482:	b8 2e       	mov	r11, r24
 484:	09 c0       	rjmp	.+18     	; 0x498 <vfprintf+0x256>
 486:	24 ff       	sbrs	r18, 4
 488:	0a c0       	rjmp	.+20     	; 0x49e <vfprintf+0x25c>
 48a:	9f 2f       	mov	r25, r31
 48c:	96 60       	ori	r25, 0x06	; 6
 48e:	b9 2e       	mov	r11, r25
 490:	06 c0       	rjmp	.+12     	; 0x49e <vfprintf+0x25c>
 492:	28 e0       	ldi	r18, 0x08	; 8
 494:	30 e0       	ldi	r19, 0x00	; 0
 496:	05 c0       	rjmp	.+10     	; 0x4a2 <vfprintf+0x260>
 498:	20 e1       	ldi	r18, 0x10	; 16
 49a:	30 e0       	ldi	r19, 0x00	; 0
 49c:	02 c0       	rjmp	.+4      	; 0x4a2 <vfprintf+0x260>
 49e:	20 e1       	ldi	r18, 0x10	; 16
 4a0:	32 e0       	ldi	r19, 0x02	; 2
 4a2:	f8 01       	movw	r30, r16
 4a4:	b7 fe       	sbrs	r11, 7
 4a6:	07 c0       	rjmp	.+14     	; 0x4b6 <vfprintf+0x274>
 4a8:	60 81       	ld	r22, Z
 4aa:	71 81       	ldd	r23, Z+1	; 0x01
 4ac:	82 81       	ldd	r24, Z+2	; 0x02
 4ae:	93 81       	ldd	r25, Z+3	; 0x03
 4b0:	0c 5f       	subi	r16, 0xFC	; 252
 4b2:	1f 4f       	sbci	r17, 0xFF	; 255
 4b4:	06 c0       	rjmp	.+12     	; 0x4c2 <vfprintf+0x280>
 4b6:	60 81       	ld	r22, Z
 4b8:	71 81       	ldd	r23, Z+1	; 0x01
 4ba:	80 e0       	ldi	r24, 0x00	; 0
 4bc:	90 e0       	ldi	r25, 0x00	; 0
 4be:	0e 5f       	subi	r16, 0xFE	; 254
 4c0:	1f 4f       	sbci	r17, 0xFF	; 255
 4c2:	a4 01       	movw	r20, r8
 4c4:	0e 94 5a 06 	call	0xcb4	; 0xcb4 <__ultoa_invert>
 4c8:	a8 2e       	mov	r10, r24
 4ca:	a8 18       	sub	r10, r8
 4cc:	fb 2d       	mov	r31, r11
 4ce:	ff 77       	andi	r31, 0x7F	; 127
 4d0:	7f 2e       	mov	r7, r31
 4d2:	76 fe       	sbrs	r7, 6
 4d4:	0b c0       	rjmp	.+22     	; 0x4ec <vfprintf+0x2aa>
 4d6:	37 2d       	mov	r19, r7
 4d8:	3e 7f       	andi	r19, 0xFE	; 254
 4da:	a5 14       	cp	r10, r5
 4dc:	50 f4       	brcc	.+20     	; 0x4f2 <vfprintf+0x2b0>
 4de:	74 fe       	sbrs	r7, 4
 4e0:	0a c0       	rjmp	.+20     	; 0x4f6 <vfprintf+0x2b4>
 4e2:	72 fc       	sbrc	r7, 2
 4e4:	08 c0       	rjmp	.+16     	; 0x4f6 <vfprintf+0x2b4>
 4e6:	37 2d       	mov	r19, r7
 4e8:	3e 7e       	andi	r19, 0xEE	; 238
 4ea:	05 c0       	rjmp	.+10     	; 0x4f6 <vfprintf+0x2b4>
 4ec:	ba 2c       	mov	r11, r10
 4ee:	37 2d       	mov	r19, r7
 4f0:	03 c0       	rjmp	.+6      	; 0x4f8 <vfprintf+0x2b6>
 4f2:	ba 2c       	mov	r11, r10
 4f4:	01 c0       	rjmp	.+2      	; 0x4f8 <vfprintf+0x2b6>
 4f6:	b5 2c       	mov	r11, r5
 4f8:	34 ff       	sbrs	r19, 4
 4fa:	0d c0       	rjmp	.+26     	; 0x516 <vfprintf+0x2d4>
 4fc:	fe 01       	movw	r30, r28
 4fe:	ea 0d       	add	r30, r10
 500:	f1 1d       	adc	r31, r1
 502:	80 81       	ld	r24, Z
 504:	80 33       	cpi	r24, 0x30	; 48
 506:	11 f4       	brne	.+4      	; 0x50c <vfprintf+0x2ca>
 508:	39 7e       	andi	r19, 0xE9	; 233
 50a:	09 c0       	rjmp	.+18     	; 0x51e <vfprintf+0x2dc>
 50c:	32 ff       	sbrs	r19, 2
 50e:	06 c0       	rjmp	.+12     	; 0x51c <vfprintf+0x2da>
 510:	b3 94       	inc	r11
 512:	b3 94       	inc	r11
 514:	04 c0       	rjmp	.+8      	; 0x51e <vfprintf+0x2dc>
 516:	83 2f       	mov	r24, r19
 518:	86 78       	andi	r24, 0x86	; 134
 51a:	09 f0       	breq	.+2      	; 0x51e <vfprintf+0x2dc>
 51c:	b3 94       	inc	r11
 51e:	33 fd       	sbrc	r19, 3
 520:	13 c0       	rjmp	.+38     	; 0x548 <vfprintf+0x306>
 522:	30 ff       	sbrs	r19, 0
 524:	06 c0       	rjmp	.+12     	; 0x532 <vfprintf+0x2f0>
 526:	5a 2c       	mov	r5, r10
 528:	b3 14       	cp	r11, r3
 52a:	18 f4       	brcc	.+6      	; 0x532 <vfprintf+0x2f0>
 52c:	53 0c       	add	r5, r3
 52e:	5b 18       	sub	r5, r11
 530:	b3 2c       	mov	r11, r3
 532:	b3 14       	cp	r11, r3
 534:	68 f4       	brcc	.+26     	; 0x550 <vfprintf+0x30e>
 536:	b7 01       	movw	r22, r14
 538:	80 e2       	ldi	r24, 0x20	; 32
 53a:	90 e0       	ldi	r25, 0x00	; 0
 53c:	3c 87       	std	Y+12, r19	; 0x0c
 53e:	0e 94 09 06 	call	0xc12	; 0xc12 <fputc>
 542:	b3 94       	inc	r11
 544:	3c 85       	ldd	r19, Y+12	; 0x0c
 546:	f5 cf       	rjmp	.-22     	; 0x532 <vfprintf+0x2f0>
 548:	b3 14       	cp	r11, r3
 54a:	10 f4       	brcc	.+4      	; 0x550 <vfprintf+0x30e>
 54c:	3b 18       	sub	r3, r11
 54e:	01 c0       	rjmp	.+2      	; 0x552 <vfprintf+0x310>
 550:	31 2c       	mov	r3, r1
 552:	34 ff       	sbrs	r19, 4
 554:	12 c0       	rjmp	.+36     	; 0x57a <vfprintf+0x338>
 556:	b7 01       	movw	r22, r14
 558:	80 e3       	ldi	r24, 0x30	; 48
 55a:	90 e0       	ldi	r25, 0x00	; 0
 55c:	3c 87       	std	Y+12, r19	; 0x0c
 55e:	0e 94 09 06 	call	0xc12	; 0xc12 <fputc>
 562:	3c 85       	ldd	r19, Y+12	; 0x0c
 564:	32 ff       	sbrs	r19, 2
 566:	17 c0       	rjmp	.+46     	; 0x596 <vfprintf+0x354>
 568:	31 fd       	sbrc	r19, 1
 56a:	03 c0       	rjmp	.+6      	; 0x572 <vfprintf+0x330>
 56c:	88 e7       	ldi	r24, 0x78	; 120
 56e:	90 e0       	ldi	r25, 0x00	; 0
 570:	02 c0       	rjmp	.+4      	; 0x576 <vfprintf+0x334>
 572:	88 e5       	ldi	r24, 0x58	; 88
 574:	90 e0       	ldi	r25, 0x00	; 0
 576:	b7 01       	movw	r22, r14
 578:	0c c0       	rjmp	.+24     	; 0x592 <vfprintf+0x350>
 57a:	83 2f       	mov	r24, r19
 57c:	86 78       	andi	r24, 0x86	; 134
 57e:	59 f0       	breq	.+22     	; 0x596 <vfprintf+0x354>
 580:	31 ff       	sbrs	r19, 1
 582:	02 c0       	rjmp	.+4      	; 0x588 <vfprintf+0x346>
 584:	8b e2       	ldi	r24, 0x2B	; 43
 586:	01 c0       	rjmp	.+2      	; 0x58a <vfprintf+0x348>
 588:	80 e2       	ldi	r24, 0x20	; 32
 58a:	37 fd       	sbrc	r19, 7
 58c:	8d e2       	ldi	r24, 0x2D	; 45
 58e:	b7 01       	movw	r22, r14
 590:	90 e0       	ldi	r25, 0x00	; 0
 592:	0e 94 09 06 	call	0xc12	; 0xc12 <fputc>
 596:	a5 14       	cp	r10, r5
 598:	38 f4       	brcc	.+14     	; 0x5a8 <vfprintf+0x366>
 59a:	b7 01       	movw	r22, r14
 59c:	80 e3       	ldi	r24, 0x30	; 48
 59e:	90 e0       	ldi	r25, 0x00	; 0
 5a0:	0e 94 09 06 	call	0xc12	; 0xc12 <fputc>
 5a4:	5a 94       	dec	r5
 5a6:	f7 cf       	rjmp	.-18     	; 0x596 <vfprintf+0x354>
 5a8:	aa 94       	dec	r10
 5aa:	f4 01       	movw	r30, r8
 5ac:	ea 0d       	add	r30, r10
 5ae:	f1 1d       	adc	r31, r1
 5b0:	80 81       	ld	r24, Z
 5b2:	b7 01       	movw	r22, r14
 5b4:	90 e0       	ldi	r25, 0x00	; 0
 5b6:	0e 94 09 06 	call	0xc12	; 0xc12 <fputc>
 5ba:	a1 10       	cpse	r10, r1
 5bc:	f5 cf       	rjmp	.-22     	; 0x5a8 <vfprintf+0x366>
 5be:	33 20       	and	r3, r3
 5c0:	09 f4       	brne	.+2      	; 0x5c4 <vfprintf+0x382>
 5c2:	51 ce       	rjmp	.-862    	; 0x266 <vfprintf+0x24>
 5c4:	b7 01       	movw	r22, r14
 5c6:	80 e2       	ldi	r24, 0x20	; 32
 5c8:	90 e0       	ldi	r25, 0x00	; 0
 5ca:	0e 94 09 06 	call	0xc12	; 0xc12 <fputc>
 5ce:	3a 94       	dec	r3
 5d0:	f6 cf       	rjmp	.-20     	; 0x5be <vfprintf+0x37c>
 5d2:	f7 01       	movw	r30, r14
 5d4:	86 81       	ldd	r24, Z+6	; 0x06
 5d6:	97 81       	ldd	r25, Z+7	; 0x07
 5d8:	02 c0       	rjmp	.+4      	; 0x5de <vfprintf+0x39c>
 5da:	8f ef       	ldi	r24, 0xFF	; 255
 5dc:	9f ef       	ldi	r25, 0xFF	; 255
 5de:	2c 96       	adiw	r28, 0x0c	; 12
 5e0:	e2 e1       	ldi	r30, 0x12	; 18
 5e2:	0c 94 d7 06 	jmp	0xdae	; 0xdae <__epilogue_restores__>

000005e6 <putval>:
 5e6:	20 fd       	sbrc	r18, 0
 5e8:	09 c0       	rjmp	.+18     	; 0x5fc <putval+0x16>
 5ea:	fc 01       	movw	r30, r24
 5ec:	23 fd       	sbrc	r18, 3
 5ee:	05 c0       	rjmp	.+10     	; 0x5fa <putval+0x14>
 5f0:	22 ff       	sbrs	r18, 2
 5f2:	02 c0       	rjmp	.+4      	; 0x5f8 <putval+0x12>
 5f4:	73 83       	std	Z+3, r23	; 0x03
 5f6:	62 83       	std	Z+2, r22	; 0x02
 5f8:	51 83       	std	Z+1, r21	; 0x01
 5fa:	40 83       	st	Z, r20
 5fc:	08 95       	ret

000005fe <mulacc>:
 5fe:	44 fd       	sbrc	r20, 4
 600:	10 c0       	rjmp	.+32     	; 0x622 <mulacc+0x24>
 602:	46 fd       	sbrc	r20, 6
 604:	10 c0       	rjmp	.+32     	; 0x626 <mulacc+0x28>
 606:	db 01       	movw	r26, r22
 608:	fc 01       	movw	r30, r24
 60a:	aa 0f       	add	r26, r26
 60c:	bb 1f       	adc	r27, r27
 60e:	ee 1f       	adc	r30, r30
 610:	ff 1f       	adc	r31, r31
 612:	10 94       	com	r1
 614:	d1 f7       	brne	.-12     	; 0x60a <mulacc+0xc>
 616:	6a 0f       	add	r22, r26
 618:	7b 1f       	adc	r23, r27
 61a:	8e 1f       	adc	r24, r30
 61c:	9f 1f       	adc	r25, r31
 61e:	31 e0       	ldi	r19, 0x01	; 1
 620:	03 c0       	rjmp	.+6      	; 0x628 <mulacc+0x2a>
 622:	33 e0       	ldi	r19, 0x03	; 3
 624:	01 c0       	rjmp	.+2      	; 0x628 <mulacc+0x2a>
 626:	34 e0       	ldi	r19, 0x04	; 4
 628:	66 0f       	add	r22, r22
 62a:	77 1f       	adc	r23, r23
 62c:	88 1f       	adc	r24, r24
 62e:	99 1f       	adc	r25, r25
 630:	31 50       	subi	r19, 0x01	; 1
 632:	d1 f7       	brne	.-12     	; 0x628 <mulacc+0x2a>
 634:	62 0f       	add	r22, r18
 636:	71 1d       	adc	r23, r1
 638:	81 1d       	adc	r24, r1
 63a:	91 1d       	adc	r25, r1
 63c:	08 95       	ret

0000063e <skip_spaces>:
 63e:	0f 93       	push	r16
 640:	1f 93       	push	r17
 642:	cf 93       	push	r28
 644:	df 93       	push	r29
 646:	8c 01       	movw	r16, r24
 648:	c8 01       	movw	r24, r16
 64a:	0e 94 cb 05 	call	0xb96	; 0xb96 <fgetc>
 64e:	ec 01       	movw	r28, r24
 650:	97 fd       	sbrc	r25, 7
 652:	08 c0       	rjmp	.+16     	; 0x664 <skip_spaces+0x26>
 654:	0e 94 a1 05 	call	0xb42	; 0xb42 <isspace>
 658:	89 2b       	or	r24, r25
 65a:	b1 f7       	brne	.-20     	; 0x648 <skip_spaces+0xa>
 65c:	b8 01       	movw	r22, r16
 65e:	ce 01       	movw	r24, r28
 660:	0e 94 41 06 	call	0xc82	; 0xc82 <ungetc>
 664:	ce 01       	movw	r24, r28
 666:	df 91       	pop	r29
 668:	cf 91       	pop	r28
 66a:	1f 91       	pop	r17
 66c:	0f 91       	pop	r16
 66e:	08 95       	ret

00000670 <conv_int>:
 670:	a1 e0       	ldi	r26, 0x01	; 1
 672:	b0 e0       	ldi	r27, 0x00	; 0
 674:	ee e3       	ldi	r30, 0x3E	; 62
 676:	f3 e0       	ldi	r31, 0x03	; 3
 678:	0c 94 c1 06 	jmp	0xd82	; 0xd82 <__prologue_saves__+0xc>
 67c:	8c 01       	movw	r16, r24
 67e:	c6 2e       	mov	r12, r22
 680:	7a 01       	movw	r14, r20
 682:	29 83       	std	Y+1, r18	; 0x01
 684:	0e 94 cb 05 	call	0xb96	; 0xb96 <fgetc>
 688:	ac 01       	movw	r20, r24
 68a:	55 27       	eor	r21, r21
 68c:	29 81       	ldd	r18, Y+1	; 0x01
 68e:	4b 32       	cpi	r20, 0x2B	; 43
 690:	51 05       	cpc	r21, r1
 692:	21 f0       	breq	.+8      	; 0x69c <conv_int+0x2c>
 694:	4d 32       	cpi	r20, 0x2D	; 45
 696:	51 05       	cpc	r21, r1
 698:	69 f4       	brne	.+26     	; 0x6b4 <conv_int+0x44>
 69a:	20 68       	ori	r18, 0x80	; 128
 69c:	ca 94       	dec	r12
 69e:	c1 10       	cpse	r12, r1
 6a0:	02 c0       	rjmp	.+4      	; 0x6a6 <conv_int+0x36>
 6a2:	80 e0       	ldi	r24, 0x00	; 0
 6a4:	76 c0       	rjmp	.+236    	; 0x792 <conv_int+0x122>
 6a6:	c8 01       	movw	r24, r16
 6a8:	29 83       	std	Y+1, r18	; 0x01
 6aa:	0e 94 cb 05 	call	0xb96	; 0xb96 <fgetc>
 6ae:	29 81       	ldd	r18, Y+1	; 0x01
 6b0:	97 fd       	sbrc	r25, 7
 6b2:	f7 cf       	rjmp	.-18     	; 0x6a2 <conv_int+0x32>
 6b4:	32 2f       	mov	r19, r18
 6b6:	3d 7f       	andi	r19, 0xFD	; 253
 6b8:	d3 2e       	mov	r13, r19
 6ba:	32 2f       	mov	r19, r18
 6bc:	30 73       	andi	r19, 0x30	; 48
 6be:	49 f5       	brne	.+82     	; 0x712 <conv_int+0xa2>
 6c0:	80 33       	cpi	r24, 0x30	; 48
 6c2:	39 f5       	brne	.+78     	; 0x712 <conv_int+0xa2>
 6c4:	bb 24       	eor	r11, r11
 6c6:	ba 94       	dec	r11
 6c8:	bc 0c       	add	r11, r12
 6ca:	09 f4       	brne	.+2      	; 0x6ce <conv_int+0x5e>
 6cc:	4e c0       	rjmp	.+156    	; 0x76a <conv_int+0xfa>
 6ce:	c8 01       	movw	r24, r16
 6d0:	29 83       	std	Y+1, r18	; 0x01
 6d2:	0e 94 cb 05 	call	0xb96	; 0xb96 <fgetc>
 6d6:	29 81       	ldd	r18, Y+1	; 0x01
 6d8:	97 fd       	sbrc	r25, 7
 6da:	47 c0       	rjmp	.+142    	; 0x76a <conv_int+0xfa>
 6dc:	38 2f       	mov	r19, r24
 6de:	3f 7d       	andi	r19, 0xDF	; 223
 6e0:	38 35       	cpi	r19, 0x58	; 88
 6e2:	69 f4       	brne	.+26     	; 0x6fe <conv_int+0x8e>
 6e4:	8d 2d       	mov	r24, r13
 6e6:	82 64       	ori	r24, 0x42	; 66
 6e8:	d8 2e       	mov	r13, r24
 6ea:	ca 94       	dec	r12
 6ec:	ca 94       	dec	r12
 6ee:	cc 20       	and	r12, r12
 6f0:	e1 f1       	breq	.+120    	; 0x76a <conv_int+0xfa>
 6f2:	c8 01       	movw	r24, r16
 6f4:	0e 94 cb 05 	call	0xb96	; 0xb96 <fgetc>
 6f8:	97 ff       	sbrs	r25, 7
 6fa:	0b c0       	rjmp	.+22     	; 0x712 <conv_int+0xa2>
 6fc:	36 c0       	rjmp	.+108    	; 0x76a <conv_int+0xfa>
 6fe:	26 ff       	sbrs	r18, 6
 700:	04 c0       	rjmp	.+8      	; 0x70a <conv_int+0x9a>
 702:	2d 2d       	mov	r18, r13
 704:	22 60       	ori	r18, 0x02	; 2
 706:	d2 2e       	mov	r13, r18
 708:	03 c0       	rjmp	.+6      	; 0x710 <conv_int+0xa0>
 70a:	3d 2d       	mov	r19, r13
 70c:	32 61       	ori	r19, 0x12	; 18
 70e:	d3 2e       	mov	r13, r19
 710:	cb 2c       	mov	r12, r11
 712:	81 2c       	mov	r8, r1
 714:	91 2c       	mov	r9, r1
 716:	54 01       	movw	r10, r8
 718:	20 ed       	ldi	r18, 0xD0	; 208
 71a:	28 0f       	add	r18, r24
 71c:	28 30       	cpi	r18, 0x08	; 8
 71e:	80 f0       	brcs	.+32     	; 0x740 <conv_int+0xd0>
 720:	d4 fe       	sbrs	r13, 4
 722:	04 c0       	rjmp	.+8      	; 0x72c <conv_int+0xbc>
 724:	b8 01       	movw	r22, r16
 726:	0e 94 41 06 	call	0xc82	; 0xc82 <ungetc>
 72a:	1c c0       	rjmp	.+56     	; 0x764 <conv_int+0xf4>
 72c:	2a 30       	cpi	r18, 0x0A	; 10
 72e:	40 f0       	brcs	.+16     	; 0x740 <conv_int+0xd0>
 730:	d6 fe       	sbrs	r13, 6
 732:	f8 cf       	rjmp	.-16     	; 0x724 <conv_int+0xb4>
 734:	2f 7d       	andi	r18, 0xDF	; 223
 736:	3f ee       	ldi	r19, 0xEF	; 239
 738:	32 0f       	add	r19, r18
 73a:	36 30       	cpi	r19, 0x06	; 6
 73c:	98 f7       	brcc	.-26     	; 0x724 <conv_int+0xb4>
 73e:	27 50       	subi	r18, 0x07	; 7
 740:	4d 2d       	mov	r20, r13
 742:	c5 01       	movw	r24, r10
 744:	b4 01       	movw	r22, r8
 746:	0e 94 ff 02 	call	0x5fe	; 0x5fe <mulacc>
 74a:	4b 01       	movw	r8, r22
 74c:	5c 01       	movw	r10, r24
 74e:	8d 2d       	mov	r24, r13
 750:	82 60       	ori	r24, 0x02	; 2
 752:	d8 2e       	mov	r13, r24
 754:	ca 94       	dec	r12
 756:	cc 20       	and	r12, r12
 758:	59 f0       	breq	.+22     	; 0x770 <conv_int+0x100>
 75a:	c8 01       	movw	r24, r16
 75c:	0e 94 cb 05 	call	0xb96	; 0xb96 <fgetc>
 760:	97 ff       	sbrs	r25, 7
 762:	da cf       	rjmp	.-76     	; 0x718 <conv_int+0xa8>
 764:	d1 fc       	sbrc	r13, 1
 766:	04 c0       	rjmp	.+8      	; 0x770 <conv_int+0x100>
 768:	9c cf       	rjmp	.-200    	; 0x6a2 <conv_int+0x32>
 76a:	81 2c       	mov	r8, r1
 76c:	91 2c       	mov	r9, r1
 76e:	54 01       	movw	r10, r8
 770:	d7 fe       	sbrs	r13, 7
 772:	08 c0       	rjmp	.+16     	; 0x784 <conv_int+0x114>
 774:	b0 94       	com	r11
 776:	a0 94       	com	r10
 778:	90 94       	com	r9
 77a:	80 94       	com	r8
 77c:	81 1c       	adc	r8, r1
 77e:	91 1c       	adc	r9, r1
 780:	a1 1c       	adc	r10, r1
 782:	b1 1c       	adc	r11, r1
 784:	2d 2d       	mov	r18, r13
 786:	b5 01       	movw	r22, r10
 788:	a4 01       	movw	r20, r8
 78a:	c7 01       	movw	r24, r14
 78c:	0e 94 f3 02 	call	0x5e6	; 0x5e6 <putval>
 790:	81 e0       	ldi	r24, 0x01	; 1
 792:	21 96       	adiw	r28, 0x01	; 1
 794:	ec e0       	ldi	r30, 0x0C	; 12
 796:	0c 94 dd 06 	jmp	0xdba	; 0xdba <__epilogue_restores__+0xc>

0000079a <conv_brk>:
 79a:	a1 e2       	ldi	r26, 0x21	; 33
 79c:	b0 e0       	ldi	r27, 0x00	; 0
 79e:	e3 ed       	ldi	r30, 0xD3	; 211
 7a0:	f3 e0       	ldi	r31, 0x03	; 3
 7a2:	0c 94 bf 06 	jmp	0xd7e	; 0xd7e <__prologue_saves__+0x8>
 7a6:	5c 01       	movw	r10, r24
 7a8:	7a 01       	movw	r14, r20
 7aa:	ce 01       	movw	r24, r28
 7ac:	01 96       	adiw	r24, 0x01	; 1
 7ae:	6c 01       	movw	r12, r24
 7b0:	80 e2       	ldi	r24, 0x20	; 32
 7b2:	f6 01       	movw	r30, r12
 7b4:	11 92       	st	Z+, r1
 7b6:	8a 95       	dec	r24
 7b8:	e9 f7       	brne	.-6      	; 0x7b4 <conv_brk+0x1a>
 7ba:	f5 01       	movw	r30, r10
 7bc:	83 80       	ldd	r8, Z+3	; 0x03
 7be:	40 e0       	ldi	r20, 0x00	; 0
 7c0:	50 e0       	ldi	r21, 0x00	; 0
 7c2:	91 2c       	mov	r9, r1
 7c4:	71 2c       	mov	r7, r1
 7c6:	70 e0       	ldi	r23, 0x00	; 0
 7c8:	a1 e0       	ldi	r26, 0x01	; 1
 7ca:	b0 e0       	ldi	r27, 0x00	; 0
 7cc:	f9 01       	movw	r30, r18
 7ce:	83 fc       	sbrc	r8, 3
 7d0:	85 91       	lpm	r24, Z+
 7d2:	83 fe       	sbrs	r8, 3
 7d4:	81 91       	ld	r24, Z+
 7d6:	8f 01       	movw	r16, r30
 7d8:	98 2f       	mov	r25, r24
 7da:	9f 01       	movw	r18, r30
 7dc:	81 11       	cpse	r24, r1
 7de:	03 c0       	rjmp	.+6      	; 0x7e6 <conv_brk+0x4c>
 7e0:	80 e0       	ldi	r24, 0x00	; 0
 7e2:	90 e0       	ldi	r25, 0x00	; 0
 7e4:	7c c0       	rjmp	.+248    	; 0x8de <conv_brk+0x144>
 7e6:	8e 35       	cpi	r24, 0x5E	; 94
 7e8:	19 f4       	brne	.+6      	; 0x7f0 <conv_brk+0x56>
 7ea:	41 15       	cp	r20, r1
 7ec:	51 05       	cpc	r21, r1
 7ee:	49 f1       	breq	.+82     	; 0x842 <conv_brk+0xa8>
 7f0:	e7 2f       	mov	r30, r23
 7f2:	f0 e0       	ldi	r31, 0x00	; 0
 7f4:	e4 17       	cp	r30, r20
 7f6:	f5 07       	cpc	r31, r21
 7f8:	3c f4       	brge	.+14     	; 0x808 <conv_brk+0x6e>
 7fa:	8d 35       	cpi	r24, 0x5D	; 93
 7fc:	59 f1       	breq	.+86     	; 0x854 <conv_brk+0xba>
 7fe:	8d 32       	cpi	r24, 0x2D	; 45
 800:	19 f4       	brne	.+6      	; 0x808 <conv_brk+0x6e>
 802:	77 20       	and	r7, r7
 804:	01 f1       	breq	.+64     	; 0x846 <conv_brk+0xac>
 806:	03 c0       	rjmp	.+6      	; 0x80e <conv_brk+0x74>
 808:	71 10       	cpse	r7, r1
 80a:	01 c0       	rjmp	.+2      	; 0x80e <conv_brk+0x74>
 80c:	98 2e       	mov	r9, r24
 80e:	89 2f       	mov	r24, r25
 810:	86 95       	lsr	r24
 812:	86 95       	lsr	r24
 814:	86 95       	lsr	r24
 816:	86 01       	movw	r16, r12
 818:	08 0f       	add	r16, r24
 81a:	11 1d       	adc	r17, r1
 81c:	89 2f       	mov	r24, r25
 81e:	87 70       	andi	r24, 0x07	; 7
 820:	3d 01       	movw	r6, r26
 822:	01 c0       	rjmp	.+2      	; 0x826 <conv_brk+0x8c>
 824:	66 0c       	add	r6, r6
 826:	8a 95       	dec	r24
 828:	ea f7       	brpl	.-6      	; 0x824 <conv_brk+0x8a>
 82a:	f8 01       	movw	r30, r16
 82c:	80 81       	ld	r24, Z
 82e:	86 29       	or	r24, r6
 830:	80 83       	st	Z, r24
 832:	99 15       	cp	r25, r9
 834:	59 f0       	breq	.+22     	; 0x84c <conv_brk+0xb2>
 836:	99 15       	cp	r25, r9
 838:	10 f4       	brcc	.+4      	; 0x83e <conv_brk+0xa4>
 83a:	9f 5f       	subi	r25, 0xFF	; 255
 83c:	e8 cf       	rjmp	.-48     	; 0x80e <conv_brk+0x74>
 83e:	91 50       	subi	r25, 0x01	; 1
 840:	e6 cf       	rjmp	.-52     	; 0x80e <conv_brk+0x74>
 842:	71 e0       	ldi	r23, 0x01	; 1
 844:	04 c0       	rjmp	.+8      	; 0x84e <conv_brk+0xb4>
 846:	77 24       	eor	r7, r7
 848:	73 94       	inc	r7
 84a:	01 c0       	rjmp	.+2      	; 0x84e <conv_brk+0xb4>
 84c:	71 2c       	mov	r7, r1
 84e:	4f 5f       	subi	r20, 0xFF	; 255
 850:	5f 4f       	sbci	r21, 0xFF	; 255
 852:	bc cf       	rjmp	.-136    	; 0x7cc <conv_brk+0x32>
 854:	77 20       	and	r7, r7
 856:	19 f0       	breq	.+6      	; 0x85e <conv_brk+0xc4>
 858:	8e 81       	ldd	r24, Y+6	; 0x06
 85a:	80 62       	ori	r24, 0x20	; 32
 85c:	8e 83       	std	Y+6, r24	; 0x06
 85e:	71 11       	cpse	r23, r1
 860:	03 c0       	rjmp	.+6      	; 0x868 <conv_brk+0xce>
 862:	99 24       	eor	r9, r9
 864:	93 94       	inc	r9
 866:	16 c0       	rjmp	.+44     	; 0x894 <conv_brk+0xfa>
 868:	f6 01       	movw	r30, r12
 86a:	9e 01       	movw	r18, r28
 86c:	2f 5d       	subi	r18, 0xDF	; 223
 86e:	3f 4f       	sbci	r19, 0xFF	; 255
 870:	80 81       	ld	r24, Z
 872:	80 95       	com	r24
 874:	81 93       	st	Z+, r24
 876:	e2 17       	cp	r30, r18
 878:	f3 07       	cpc	r31, r19
 87a:	d1 f7       	brne	.-12     	; 0x870 <conv_brk+0xd6>
 87c:	f2 cf       	rjmp	.-28     	; 0x862 <conv_brk+0xc8>
 87e:	e1 14       	cp	r14, r1
 880:	f1 04       	cpc	r15, r1
 882:	29 f0       	breq	.+10     	; 0x88e <conv_brk+0xf4>
 884:	f7 01       	movw	r30, r14
 886:	80 83       	st	Z, r24
 888:	c7 01       	movw	r24, r14
 88a:	01 96       	adiw	r24, 0x01	; 1
 88c:	7c 01       	movw	r14, r24
 88e:	61 50       	subi	r22, 0x01	; 1
 890:	91 2c       	mov	r9, r1
 892:	f9 f0       	breq	.+62     	; 0x8d2 <conv_brk+0x138>
 894:	c5 01       	movw	r24, r10
 896:	69 a3       	std	Y+33, r22	; 0x21
 898:	0e 94 cb 05 	call	0xb96	; 0xb96 <fgetc>
 89c:	69 a1       	ldd	r22, Y+33	; 0x21
 89e:	97 fd       	sbrc	r25, 7
 8a0:	16 c0       	rjmp	.+44     	; 0x8ce <conv_brk+0x134>
 8a2:	28 2f       	mov	r18, r24
 8a4:	26 95       	lsr	r18
 8a6:	26 95       	lsr	r18
 8a8:	26 95       	lsr	r18
 8aa:	f6 01       	movw	r30, r12
 8ac:	e2 0f       	add	r30, r18
 8ae:	f1 1d       	adc	r31, r1
 8b0:	20 81       	ld	r18, Z
 8b2:	30 e0       	ldi	r19, 0x00	; 0
 8b4:	ac 01       	movw	r20, r24
 8b6:	47 70       	andi	r20, 0x07	; 7
 8b8:	55 27       	eor	r21, r21
 8ba:	02 c0       	rjmp	.+4      	; 0x8c0 <conv_brk+0x126>
 8bc:	35 95       	asr	r19
 8be:	27 95       	ror	r18
 8c0:	4a 95       	dec	r20
 8c2:	e2 f7       	brpl	.-8      	; 0x8bc <conv_brk+0x122>
 8c4:	20 fd       	sbrc	r18, 0
 8c6:	db cf       	rjmp	.-74     	; 0x87e <conv_brk+0xe4>
 8c8:	b5 01       	movw	r22, r10
 8ca:	0e 94 41 06 	call	0xc82	; 0xc82 <ungetc>
 8ce:	91 10       	cpse	r9, r1
 8d0:	87 cf       	rjmp	.-242    	; 0x7e0 <conv_brk+0x46>
 8d2:	e1 14       	cp	r14, r1
 8d4:	f1 04       	cpc	r15, r1
 8d6:	11 f0       	breq	.+4      	; 0x8dc <conv_brk+0x142>
 8d8:	f7 01       	movw	r30, r14
 8da:	10 82       	st	Z, r1
 8dc:	c8 01       	movw	r24, r16
 8de:	a1 96       	adiw	r28, 0x21	; 33
 8e0:	ee e0       	ldi	r30, 0x0E	; 14
 8e2:	0c 94 db 06 	jmp	0xdb6	; 0xdb6 <__epilogue_restores__+0x8>

000008e6 <vfscanf>:
 8e6:	4f 92       	push	r4
 8e8:	5f 92       	push	r5
 8ea:	7f 92       	push	r7
 8ec:	8f 92       	push	r8
 8ee:	9f 92       	push	r9
 8f0:	af 92       	push	r10
 8f2:	bf 92       	push	r11
 8f4:	cf 92       	push	r12
 8f6:	df 92       	push	r13
 8f8:	ef 92       	push	r14
 8fa:	ff 92       	push	r15
 8fc:	0f 93       	push	r16
 8fe:	1f 93       	push	r17
 900:	cf 93       	push	r28
 902:	df 93       	push	r29
 904:	1f 92       	push	r1
 906:	cd b7       	in	r28, 0x3d	; 61
 908:	de b7       	in	r29, 0x3e	; 62
 90a:	6c 01       	movw	r12, r24
 90c:	2b 01       	movw	r4, r22
 90e:	5a 01       	movw	r10, r20
 910:	fc 01       	movw	r30, r24
 912:	17 82       	std	Z+7, r1	; 0x07
 914:	16 82       	std	Z+6, r1	; 0x06
 916:	71 2c       	mov	r7, r1
 918:	f6 01       	movw	r30, r12
 91a:	f3 80       	ldd	r15, Z+3	; 0x03
 91c:	f2 01       	movw	r30, r4
 91e:	f3 fc       	sbrc	r15, 3
 920:	85 91       	lpm	r24, Z+
 922:	f3 fe       	sbrs	r15, 3
 924:	81 91       	ld	r24, Z+
 926:	38 2f       	mov	r19, r24
 928:	2f 01       	movw	r4, r30
 92a:	88 23       	and	r24, r24
 92c:	09 f4       	brne	.+2      	; 0x930 <__stack+0x31>
 92e:	f3 c0       	rjmp	.+486    	; 0xb16 <__stack+0x217>
 930:	90 e0       	ldi	r25, 0x00	; 0
 932:	39 83       	std	Y+1, r19	; 0x01
 934:	0e 94 a1 05 	call	0xb42	; 0xb42 <isspace>
 938:	39 81       	ldd	r19, Y+1	; 0x01
 93a:	89 2b       	or	r24, r25
 93c:	21 f0       	breq	.+8      	; 0x946 <__stack+0x47>
 93e:	c6 01       	movw	r24, r12
 940:	0e 94 1f 03 	call	0x63e	; 0x63e <skip_spaces>
 944:	e9 cf       	rjmp	.-46     	; 0x918 <__stack+0x19>
 946:	35 32       	cpi	r19, 0x25	; 37
 948:	41 f4       	brne	.+16     	; 0x95a <__stack+0x5b>
 94a:	f2 01       	movw	r30, r4
 94c:	f3 fc       	sbrc	r15, 3
 94e:	35 91       	lpm	r19, Z+
 950:	f3 fe       	sbrs	r15, 3
 952:	31 91       	ld	r19, Z+
 954:	2f 01       	movw	r4, r30
 956:	35 32       	cpi	r19, 0x25	; 37
 958:	69 f4       	brne	.+26     	; 0x974 <__stack+0x75>
 95a:	c6 01       	movw	r24, r12
 95c:	39 83       	std	Y+1, r19	; 0x01
 95e:	0e 94 cb 05 	call	0xb96	; 0xb96 <fgetc>
 962:	39 81       	ldd	r19, Y+1	; 0x01
 964:	97 fd       	sbrc	r25, 7
 966:	d5 c0       	rjmp	.+426    	; 0xb12 <__stack+0x213>
 968:	38 17       	cp	r19, r24
 96a:	b1 f2       	breq	.-84     	; 0x918 <__stack+0x19>
 96c:	b6 01       	movw	r22, r12
 96e:	0e 94 41 06 	call	0xc82	; 0xc82 <ungetc>
 972:	d1 c0       	rjmp	.+418    	; 0xb16 <__stack+0x217>
 974:	3a 32       	cpi	r19, 0x2A	; 42
 976:	39 f4       	brne	.+14     	; 0x986 <__stack+0x87>
 978:	f3 fc       	sbrc	r15, 3
 97a:	35 91       	lpm	r19, Z+
 97c:	f3 fe       	sbrs	r15, 3
 97e:	31 91       	ld	r19, Z+
 980:	2f 01       	movw	r4, r30
 982:	51 e0       	ldi	r21, 0x01	; 1
 984:	01 c0       	rjmp	.+2      	; 0x988 <__stack+0x89>
 986:	50 e0       	ldi	r21, 0x00	; 0
 988:	42 01       	movw	r8, r4
 98a:	10 e0       	ldi	r17, 0x00	; 0
 98c:	20 ed       	ldi	r18, 0xD0	; 208
 98e:	23 0f       	add	r18, r19
 990:	2a 30       	cpi	r18, 0x0A	; 10
 992:	90 f4       	brcc	.+36     	; 0x9b8 <__stack+0xb9>
 994:	52 60       	ori	r21, 0x02	; 2
 996:	61 2f       	mov	r22, r17
 998:	70 e0       	ldi	r23, 0x00	; 0
 99a:	80 e0       	ldi	r24, 0x00	; 0
 99c:	90 e0       	ldi	r25, 0x00	; 0
 99e:	40 e2       	ldi	r20, 0x20	; 32
 9a0:	59 83       	std	Y+1, r21	; 0x01
 9a2:	0e 94 ff 02 	call	0x5fe	; 0x5fe <mulacc>
 9a6:	16 2f       	mov	r17, r22
 9a8:	f4 01       	movw	r30, r8
 9aa:	f3 fc       	sbrc	r15, 3
 9ac:	35 91       	lpm	r19, Z+
 9ae:	f3 fe       	sbrs	r15, 3
 9b0:	31 91       	ld	r19, Z+
 9b2:	4f 01       	movw	r8, r30
 9b4:	59 81       	ldd	r21, Y+1	; 0x01
 9b6:	ea cf       	rjmp	.-44     	; 0x98c <__stack+0x8d>
 9b8:	05 2f       	mov	r16, r21
 9ba:	23 2f       	mov	r18, r19
 9bc:	24 01       	movw	r4, r8
 9be:	51 ff       	sbrs	r21, 1
 9c0:	03 c0       	rjmp	.+6      	; 0x9c8 <__stack+0xc9>
 9c2:	11 11       	cpse	r17, r1
 9c4:	02 c0       	rjmp	.+4      	; 0x9ca <__stack+0xcb>
 9c6:	a7 c0       	rjmp	.+334    	; 0xb16 <__stack+0x217>
 9c8:	1f ef       	ldi	r17, 0xFF	; 255
 9ca:	38 36       	cpi	r19, 0x68	; 104
 9cc:	19 f0       	breq	.+6      	; 0x9d4 <__stack+0xd5>
 9ce:	3c 36       	cpi	r19, 0x6C	; 108
 9d0:	59 f0       	breq	.+22     	; 0x9e8 <__stack+0xe9>
 9d2:	11 c0       	rjmp	.+34     	; 0x9f6 <__stack+0xf7>
 9d4:	f4 01       	movw	r30, r8
 9d6:	f3 fc       	sbrc	r15, 3
 9d8:	25 91       	lpm	r18, Z+
 9da:	f3 fe       	sbrs	r15, 3
 9dc:	21 91       	ld	r18, Z+
 9de:	2f 01       	movw	r4, r30
 9e0:	28 36       	cpi	r18, 0x68	; 104
 9e2:	49 f4       	brne	.+18     	; 0x9f6 <__stack+0xf7>
 9e4:	05 2f       	mov	r16, r21
 9e6:	08 60       	ori	r16, 0x08	; 8
 9e8:	04 60       	ori	r16, 0x04	; 4
 9ea:	f2 01       	movw	r30, r4
 9ec:	f3 fc       	sbrc	r15, 3
 9ee:	25 91       	lpm	r18, Z+
 9f0:	f3 fe       	sbrs	r15, 3
 9f2:	21 91       	ld	r18, Z+
 9f4:	2f 01       	movw	r4, r30
 9f6:	22 23       	and	r18, r18
 9f8:	09 f4       	brne	.+2      	; 0x9fc <__stack+0xfd>
 9fa:	8d c0       	rjmp	.+282    	; 0xb16 <__stack+0x217>
 9fc:	62 2f       	mov	r22, r18
 9fe:	70 e0       	ldi	r23, 0x00	; 0
 a00:	84 eb       	ldi	r24, 0xB4	; 180
 a02:	90 e0       	ldi	r25, 0x00	; 0
 a04:	29 83       	std	Y+1, r18	; 0x01
 a06:	0e 94 aa 05 	call	0xb54	; 0xb54 <strchr_P>
 a0a:	29 81       	ldd	r18, Y+1	; 0x01
 a0c:	89 2b       	or	r24, r25
 a0e:	09 f4       	brne	.+2      	; 0xa12 <__stack+0x113>
 a10:	82 c0       	rjmp	.+260    	; 0xb16 <__stack+0x217>
 a12:	00 fd       	sbrc	r16, 0
 a14:	07 c0       	rjmp	.+14     	; 0xa24 <__stack+0x125>
 a16:	f5 01       	movw	r30, r10
 a18:	e0 80       	ld	r14, Z
 a1a:	f1 80       	ldd	r15, Z+1	; 0x01
 a1c:	c5 01       	movw	r24, r10
 a1e:	02 96       	adiw	r24, 0x02	; 2
 a20:	5c 01       	movw	r10, r24
 a22:	02 c0       	rjmp	.+4      	; 0xa28 <__stack+0x129>
 a24:	e1 2c       	mov	r14, r1
 a26:	f1 2c       	mov	r15, r1
 a28:	2e 36       	cpi	r18, 0x6E	; 110
 a2a:	51 f4       	brne	.+20     	; 0xa40 <__stack+0x141>
 a2c:	f6 01       	movw	r30, r12
 a2e:	46 81       	ldd	r20, Z+6	; 0x06
 a30:	57 81       	ldd	r21, Z+7	; 0x07
 a32:	60 e0       	ldi	r22, 0x00	; 0
 a34:	70 e0       	ldi	r23, 0x00	; 0
 a36:	20 2f       	mov	r18, r16
 a38:	c7 01       	movw	r24, r14
 a3a:	0e 94 f3 02 	call	0x5e6	; 0x5e6 <putval>
 a3e:	6c cf       	rjmp	.-296    	; 0x918 <__stack+0x19>
 a40:	23 36       	cpi	r18, 0x63	; 99
 a42:	91 f4       	brne	.+36     	; 0xa68 <__stack+0x169>
 a44:	01 ff       	sbrs	r16, 1
 a46:	11 e0       	ldi	r17, 0x01	; 1
 a48:	c6 01       	movw	r24, r12
 a4a:	0e 94 cb 05 	call	0xb96	; 0xb96 <fgetc>
 a4e:	97 fd       	sbrc	r25, 7
 a50:	60 c0       	rjmp	.+192    	; 0xb12 <__stack+0x213>
 a52:	e1 14       	cp	r14, r1
 a54:	f1 04       	cpc	r15, r1
 a56:	29 f0       	breq	.+10     	; 0xa62 <__stack+0x163>
 a58:	f7 01       	movw	r30, r14
 a5a:	80 83       	st	Z, r24
 a5c:	c7 01       	movw	r24, r14
 a5e:	01 96       	adiw	r24, 0x01	; 1
 a60:	7c 01       	movw	r14, r24
 a62:	11 50       	subi	r17, 0x01	; 1
 a64:	89 f7       	brne	.-30     	; 0xa48 <__stack+0x149>
 a66:	51 c0       	rjmp	.+162    	; 0xb0a <__stack+0x20b>
 a68:	2b 35       	cpi	r18, 0x5B	; 91
 a6a:	59 f4       	brne	.+22     	; 0xa82 <__stack+0x183>
 a6c:	92 01       	movw	r18, r4
 a6e:	a7 01       	movw	r20, r14
 a70:	61 2f       	mov	r22, r17
 a72:	c6 01       	movw	r24, r12
 a74:	0e 94 cd 03 	call	0x79a	; 0x79a <conv_brk>
 a78:	2c 01       	movw	r4, r24
 a7a:	89 2b       	or	r24, r25
 a7c:	09 f0       	breq	.+2      	; 0xa80 <__stack+0x181>
 a7e:	45 c0       	rjmp	.+138    	; 0xb0a <__stack+0x20b>
 a80:	3f c0       	rjmp	.+126    	; 0xb00 <__stack+0x201>
 a82:	c6 01       	movw	r24, r12
 a84:	29 83       	std	Y+1, r18	; 0x01
 a86:	0e 94 1f 03 	call	0x63e	; 0x63e <skip_spaces>
 a8a:	29 81       	ldd	r18, Y+1	; 0x01
 a8c:	97 fd       	sbrc	r25, 7
 a8e:	41 c0       	rjmp	.+130    	; 0xb12 <__stack+0x213>
 a90:	2f 36       	cpi	r18, 0x6F	; 111
 a92:	59 f1       	breq	.+86     	; 0xaea <__stack+0x1eb>
 a94:	28 f4       	brcc	.+10     	; 0xaa0 <__stack+0x1a1>
 a96:	24 36       	cpi	r18, 0x64	; 100
 a98:	31 f1       	breq	.+76     	; 0xae6 <__stack+0x1e7>
 a9a:	29 36       	cpi	r18, 0x69	; 105
 a9c:	49 f1       	breq	.+82     	; 0xaf0 <__stack+0x1f1>
 a9e:	27 c0       	rjmp	.+78     	; 0xaee <__stack+0x1ef>
 aa0:	23 37       	cpi	r18, 0x73	; 115
 aa2:	69 f0       	breq	.+26     	; 0xabe <__stack+0x1bf>
 aa4:	25 37       	cpi	r18, 0x75	; 117
 aa6:	f9 f0       	breq	.+62     	; 0xae6 <__stack+0x1e7>
 aa8:	22 c0       	rjmp	.+68     	; 0xaee <__stack+0x1ef>
 aaa:	e1 14       	cp	r14, r1
 aac:	f1 04       	cpc	r15, r1
 aae:	29 f0       	breq	.+10     	; 0xaba <__stack+0x1bb>
 ab0:	f7 01       	movw	r30, r14
 ab2:	80 82       	st	Z, r8
 ab4:	c7 01       	movw	r24, r14
 ab6:	01 96       	adiw	r24, 0x01	; 1
 ab8:	7c 01       	movw	r14, r24
 aba:	11 50       	subi	r17, 0x01	; 1
 abc:	71 f0       	breq	.+28     	; 0xada <__stack+0x1db>
 abe:	c6 01       	movw	r24, r12
 ac0:	0e 94 cb 05 	call	0xb96	; 0xb96 <fgetc>
 ac4:	4c 01       	movw	r8, r24
 ac6:	97 fd       	sbrc	r25, 7
 ac8:	08 c0       	rjmp	.+16     	; 0xada <__stack+0x1db>
 aca:	0e 94 a1 05 	call	0xb42	; 0xb42 <isspace>
 ace:	89 2b       	or	r24, r25
 ad0:	61 f3       	breq	.-40     	; 0xaaa <__stack+0x1ab>
 ad2:	b6 01       	movw	r22, r12
 ad4:	c4 01       	movw	r24, r8
 ad6:	0e 94 41 06 	call	0xc82	; 0xc82 <ungetc>
 ada:	e1 14       	cp	r14, r1
 adc:	f1 04       	cpc	r15, r1
 ade:	a9 f0       	breq	.+42     	; 0xb0a <__stack+0x20b>
 ae0:	f7 01       	movw	r30, r14
 ae2:	10 82       	st	Z, r1
 ae4:	12 c0       	rjmp	.+36     	; 0xb0a <__stack+0x20b>
 ae6:	00 62       	ori	r16, 0x20	; 32
 ae8:	03 c0       	rjmp	.+6      	; 0xaf0 <__stack+0x1f1>
 aea:	00 61       	ori	r16, 0x10	; 16
 aec:	01 c0       	rjmp	.+2      	; 0xaf0 <__stack+0x1f1>
 aee:	00 64       	ori	r16, 0x40	; 64
 af0:	20 2f       	mov	r18, r16
 af2:	a7 01       	movw	r20, r14
 af4:	61 2f       	mov	r22, r17
 af6:	c6 01       	movw	r24, r12
 af8:	0e 94 38 03 	call	0x670	; 0x670 <conv_int>
 afc:	81 11       	cpse	r24, r1
 afe:	05 c0       	rjmp	.+10     	; 0xb0a <__stack+0x20b>
 b00:	f6 01       	movw	r30, r12
 b02:	83 81       	ldd	r24, Z+3	; 0x03
 b04:	80 73       	andi	r24, 0x30	; 48
 b06:	29 f4       	brne	.+10     	; 0xb12 <__stack+0x213>
 b08:	06 c0       	rjmp	.+12     	; 0xb16 <__stack+0x217>
 b0a:	00 fd       	sbrc	r16, 0
 b0c:	05 cf       	rjmp	.-502    	; 0x918 <__stack+0x19>
 b0e:	73 94       	inc	r7
 b10:	03 cf       	rjmp	.-506    	; 0x918 <__stack+0x19>
 b12:	77 20       	and	r7, r7
 b14:	19 f0       	breq	.+6      	; 0xb1c <__stack+0x21d>
 b16:	87 2d       	mov	r24, r7
 b18:	90 e0       	ldi	r25, 0x00	; 0
 b1a:	02 c0       	rjmp	.+4      	; 0xb20 <__stack+0x221>
 b1c:	8f ef       	ldi	r24, 0xFF	; 255
 b1e:	9f ef       	ldi	r25, 0xFF	; 255
 b20:	0f 90       	pop	r0
 b22:	df 91       	pop	r29
 b24:	cf 91       	pop	r28
 b26:	1f 91       	pop	r17
 b28:	0f 91       	pop	r16
 b2a:	ff 90       	pop	r15
 b2c:	ef 90       	pop	r14
 b2e:	df 90       	pop	r13
 b30:	cf 90       	pop	r12
 b32:	bf 90       	pop	r11
 b34:	af 90       	pop	r10
 b36:	9f 90       	pop	r9
 b38:	8f 90       	pop	r8
 b3a:	7f 90       	pop	r7
 b3c:	5f 90       	pop	r5
 b3e:	4f 90       	pop	r4
 b40:	08 95       	ret

00000b42 <isspace>:
 b42:	91 11       	cpse	r25, r1
 b44:	0c 94 b8 06 	jmp	0xd70	; 0xd70 <__ctype_isfalse>
 b48:	80 32       	cpi	r24, 0x20	; 32
 b4a:	19 f0       	breq	.+6      	; 0xb52 <isspace+0x10>
 b4c:	89 50       	subi	r24, 0x09	; 9
 b4e:	85 50       	subi	r24, 0x05	; 5
 b50:	c8 f7       	brcc	.-14     	; 0xb44 <isspace+0x2>
 b52:	08 95       	ret

00000b54 <strchr_P>:
 b54:	fc 01       	movw	r30, r24
 b56:	05 90       	lpm	r0, Z+
 b58:	06 16       	cp	r0, r22
 b5a:	21 f0       	breq	.+8      	; 0xb64 <strchr_P+0x10>
 b5c:	00 20       	and	r0, r0
 b5e:	d9 f7       	brne	.-10     	; 0xb56 <strchr_P+0x2>
 b60:	c0 01       	movw	r24, r0
 b62:	08 95       	ret
 b64:	31 97       	sbiw	r30, 0x01	; 1
 b66:	cf 01       	movw	r24, r30
 b68:	08 95       	ret

00000b6a <strnlen_P>:
 b6a:	fc 01       	movw	r30, r24
 b6c:	05 90       	lpm	r0, Z+
 b6e:	61 50       	subi	r22, 0x01	; 1
 b70:	70 40       	sbci	r23, 0x00	; 0
 b72:	01 10       	cpse	r0, r1
 b74:	d8 f7       	brcc	.-10     	; 0xb6c <strnlen_P+0x2>
 b76:	80 95       	com	r24
 b78:	90 95       	com	r25
 b7a:	8e 0f       	add	r24, r30
 b7c:	9f 1f       	adc	r25, r31
 b7e:	08 95       	ret

00000b80 <strnlen>:
 b80:	fc 01       	movw	r30, r24
 b82:	61 50       	subi	r22, 0x01	; 1
 b84:	70 40       	sbci	r23, 0x00	; 0
 b86:	01 90       	ld	r0, Z+
 b88:	01 10       	cpse	r0, r1
 b8a:	d8 f7       	brcc	.-10     	; 0xb82 <strnlen+0x2>
 b8c:	80 95       	com	r24
 b8e:	90 95       	com	r25
 b90:	8e 0f       	add	r24, r30
 b92:	9f 1f       	adc	r25, r31
 b94:	08 95       	ret

00000b96 <fgetc>:
 b96:	cf 93       	push	r28
 b98:	df 93       	push	r29
 b9a:	ec 01       	movw	r28, r24
 b9c:	2b 81       	ldd	r18, Y+3	; 0x03
 b9e:	20 ff       	sbrs	r18, 0
 ba0:	33 c0       	rjmp	.+102    	; 0xc08 <fgetc+0x72>
 ba2:	26 ff       	sbrs	r18, 6
 ba4:	0a c0       	rjmp	.+20     	; 0xbba <fgetc+0x24>
 ba6:	2f 7b       	andi	r18, 0xBF	; 191
 ba8:	2b 83       	std	Y+3, r18	; 0x03
 baa:	8e 81       	ldd	r24, Y+6	; 0x06
 bac:	9f 81       	ldd	r25, Y+7	; 0x07
 bae:	01 96       	adiw	r24, 0x01	; 1
 bb0:	9f 83       	std	Y+7, r25	; 0x07
 bb2:	8e 83       	std	Y+6, r24	; 0x06
 bb4:	8a 81       	ldd	r24, Y+2	; 0x02
 bb6:	90 e0       	ldi	r25, 0x00	; 0
 bb8:	29 c0       	rjmp	.+82     	; 0xc0c <fgetc+0x76>
 bba:	22 ff       	sbrs	r18, 2
 bbc:	0f c0       	rjmp	.+30     	; 0xbdc <fgetc+0x46>
 bbe:	e8 81       	ld	r30, Y
 bc0:	f9 81       	ldd	r31, Y+1	; 0x01
 bc2:	80 81       	ld	r24, Z
 bc4:	08 2e       	mov	r0, r24
 bc6:	00 0c       	add	r0, r0
 bc8:	99 0b       	sbc	r25, r25
 bca:	00 97       	sbiw	r24, 0x00	; 0
 bcc:	19 f4       	brne	.+6      	; 0xbd4 <fgetc+0x3e>
 bce:	20 62       	ori	r18, 0x20	; 32
 bd0:	2b 83       	std	Y+3, r18	; 0x03
 bd2:	1a c0       	rjmp	.+52     	; 0xc08 <fgetc+0x72>
 bd4:	31 96       	adiw	r30, 0x01	; 1
 bd6:	f9 83       	std	Y+1, r31	; 0x01
 bd8:	e8 83       	st	Y, r30
 bda:	0e c0       	rjmp	.+28     	; 0xbf8 <fgetc+0x62>
 bdc:	ea 85       	ldd	r30, Y+10	; 0x0a
 bde:	fb 85       	ldd	r31, Y+11	; 0x0b
 be0:	09 95       	icall
 be2:	97 ff       	sbrs	r25, 7
 be4:	09 c0       	rjmp	.+18     	; 0xbf8 <fgetc+0x62>
 be6:	2b 81       	ldd	r18, Y+3	; 0x03
 be8:	01 96       	adiw	r24, 0x01	; 1
 bea:	11 f0       	breq	.+4      	; 0xbf0 <fgetc+0x5a>
 bec:	80 e2       	ldi	r24, 0x20	; 32
 bee:	01 c0       	rjmp	.+2      	; 0xbf2 <fgetc+0x5c>
 bf0:	80 e1       	ldi	r24, 0x10	; 16
 bf2:	82 2b       	or	r24, r18
 bf4:	8b 83       	std	Y+3, r24	; 0x03
 bf6:	08 c0       	rjmp	.+16     	; 0xc08 <fgetc+0x72>
 bf8:	2e 81       	ldd	r18, Y+6	; 0x06
 bfa:	3f 81       	ldd	r19, Y+7	; 0x07
 bfc:	2f 5f       	subi	r18, 0xFF	; 255
 bfe:	3f 4f       	sbci	r19, 0xFF	; 255
 c00:	3f 83       	std	Y+7, r19	; 0x07
 c02:	2e 83       	std	Y+6, r18	; 0x06
 c04:	99 27       	eor	r25, r25
 c06:	02 c0       	rjmp	.+4      	; 0xc0c <fgetc+0x76>
 c08:	8f ef       	ldi	r24, 0xFF	; 255
 c0a:	9f ef       	ldi	r25, 0xFF	; 255
 c0c:	df 91       	pop	r29
 c0e:	cf 91       	pop	r28
 c10:	08 95       	ret

00000c12 <fputc>:
 c12:	0f 93       	push	r16
 c14:	1f 93       	push	r17
 c16:	cf 93       	push	r28
 c18:	df 93       	push	r29
 c1a:	fb 01       	movw	r30, r22
 c1c:	23 81       	ldd	r18, Z+3	; 0x03
 c1e:	21 fd       	sbrc	r18, 1
 c20:	03 c0       	rjmp	.+6      	; 0xc28 <fputc+0x16>
 c22:	8f ef       	ldi	r24, 0xFF	; 255
 c24:	9f ef       	ldi	r25, 0xFF	; 255
 c26:	28 c0       	rjmp	.+80     	; 0xc78 <fputc+0x66>
 c28:	22 ff       	sbrs	r18, 2
 c2a:	16 c0       	rjmp	.+44     	; 0xc58 <fputc+0x46>
 c2c:	46 81       	ldd	r20, Z+6	; 0x06
 c2e:	57 81       	ldd	r21, Z+7	; 0x07
 c30:	24 81       	ldd	r18, Z+4	; 0x04
 c32:	35 81       	ldd	r19, Z+5	; 0x05
 c34:	42 17       	cp	r20, r18
 c36:	53 07       	cpc	r21, r19
 c38:	44 f4       	brge	.+16     	; 0xc4a <fputc+0x38>
 c3a:	a0 81       	ld	r26, Z
 c3c:	b1 81       	ldd	r27, Z+1	; 0x01
 c3e:	9d 01       	movw	r18, r26
 c40:	2f 5f       	subi	r18, 0xFF	; 255
 c42:	3f 4f       	sbci	r19, 0xFF	; 255
 c44:	31 83       	std	Z+1, r19	; 0x01
 c46:	20 83       	st	Z, r18
 c48:	8c 93       	st	X, r24
 c4a:	26 81       	ldd	r18, Z+6	; 0x06
 c4c:	37 81       	ldd	r19, Z+7	; 0x07
 c4e:	2f 5f       	subi	r18, 0xFF	; 255
 c50:	3f 4f       	sbci	r19, 0xFF	; 255
 c52:	37 83       	std	Z+7, r19	; 0x07
 c54:	26 83       	std	Z+6, r18	; 0x06
 c56:	10 c0       	rjmp	.+32     	; 0xc78 <fputc+0x66>
 c58:	eb 01       	movw	r28, r22
 c5a:	09 2f       	mov	r16, r25
 c5c:	18 2f       	mov	r17, r24
 c5e:	00 84       	ldd	r0, Z+8	; 0x08
 c60:	f1 85       	ldd	r31, Z+9	; 0x09
 c62:	e0 2d       	mov	r30, r0
 c64:	09 95       	icall
 c66:	89 2b       	or	r24, r25
 c68:	e1 f6       	brne	.-72     	; 0xc22 <fputc+0x10>
 c6a:	8e 81       	ldd	r24, Y+6	; 0x06
 c6c:	9f 81       	ldd	r25, Y+7	; 0x07
 c6e:	01 96       	adiw	r24, 0x01	; 1
 c70:	9f 83       	std	Y+7, r25	; 0x07
 c72:	8e 83       	std	Y+6, r24	; 0x06
 c74:	81 2f       	mov	r24, r17
 c76:	90 2f       	mov	r25, r16
 c78:	df 91       	pop	r29
 c7a:	cf 91       	pop	r28
 c7c:	1f 91       	pop	r17
 c7e:	0f 91       	pop	r16
 c80:	08 95       	ret

00000c82 <ungetc>:
 c82:	fb 01       	movw	r30, r22
 c84:	23 81       	ldd	r18, Z+3	; 0x03
 c86:	20 ff       	sbrs	r18, 0
 c88:	12 c0       	rjmp	.+36     	; 0xcae <ungetc+0x2c>
 c8a:	26 fd       	sbrc	r18, 6
 c8c:	10 c0       	rjmp	.+32     	; 0xcae <ungetc+0x2c>
 c8e:	8f 3f       	cpi	r24, 0xFF	; 255
 c90:	3f ef       	ldi	r19, 0xFF	; 255
 c92:	93 07       	cpc	r25, r19
 c94:	61 f0       	breq	.+24     	; 0xcae <ungetc+0x2c>
 c96:	82 83       	std	Z+2, r24	; 0x02
 c98:	2f 7d       	andi	r18, 0xDF	; 223
 c9a:	20 64       	ori	r18, 0x40	; 64
 c9c:	23 83       	std	Z+3, r18	; 0x03
 c9e:	26 81       	ldd	r18, Z+6	; 0x06
 ca0:	37 81       	ldd	r19, Z+7	; 0x07
 ca2:	21 50       	subi	r18, 0x01	; 1
 ca4:	31 09       	sbc	r19, r1
 ca6:	37 83       	std	Z+7, r19	; 0x07
 ca8:	26 83       	std	Z+6, r18	; 0x06
 caa:	99 27       	eor	r25, r25
 cac:	08 95       	ret
 cae:	8f ef       	ldi	r24, 0xFF	; 255
 cb0:	9f ef       	ldi	r25, 0xFF	; 255
 cb2:	08 95       	ret

00000cb4 <__ultoa_invert>:
 cb4:	fa 01       	movw	r30, r20
 cb6:	aa 27       	eor	r26, r26
 cb8:	28 30       	cpi	r18, 0x08	; 8
 cba:	51 f1       	breq	.+84     	; 0xd10 <__ultoa_invert+0x5c>
 cbc:	20 31       	cpi	r18, 0x10	; 16
 cbe:	81 f1       	breq	.+96     	; 0xd20 <__ultoa_invert+0x6c>
 cc0:	e8 94       	clt
 cc2:	6f 93       	push	r22
 cc4:	6e 7f       	andi	r22, 0xFE	; 254
 cc6:	6e 5f       	subi	r22, 0xFE	; 254
 cc8:	7f 4f       	sbci	r23, 0xFF	; 255
 cca:	8f 4f       	sbci	r24, 0xFF	; 255
 ccc:	9f 4f       	sbci	r25, 0xFF	; 255
 cce:	af 4f       	sbci	r26, 0xFF	; 255
 cd0:	b1 e0       	ldi	r27, 0x01	; 1
 cd2:	3e d0       	rcall	.+124    	; 0xd50 <__ultoa_invert+0x9c>
 cd4:	b4 e0       	ldi	r27, 0x04	; 4
 cd6:	3c d0       	rcall	.+120    	; 0xd50 <__ultoa_invert+0x9c>
 cd8:	67 0f       	add	r22, r23
 cda:	78 1f       	adc	r23, r24
 cdc:	89 1f       	adc	r24, r25
 cde:	9a 1f       	adc	r25, r26
 ce0:	a1 1d       	adc	r26, r1
 ce2:	68 0f       	add	r22, r24
 ce4:	79 1f       	adc	r23, r25
 ce6:	8a 1f       	adc	r24, r26
 ce8:	91 1d       	adc	r25, r1
 cea:	a1 1d       	adc	r26, r1
 cec:	6a 0f       	add	r22, r26
 cee:	71 1d       	adc	r23, r1
 cf0:	81 1d       	adc	r24, r1
 cf2:	91 1d       	adc	r25, r1
 cf4:	a1 1d       	adc	r26, r1
 cf6:	20 d0       	rcall	.+64     	; 0xd38 <__ultoa_invert+0x84>
 cf8:	09 f4       	brne	.+2      	; 0xcfc <__ultoa_invert+0x48>
 cfa:	68 94       	set
 cfc:	3f 91       	pop	r19
 cfe:	2a e0       	ldi	r18, 0x0A	; 10
 d00:	26 9f       	mul	r18, r22
 d02:	11 24       	eor	r1, r1
 d04:	30 19       	sub	r19, r0
 d06:	30 5d       	subi	r19, 0xD0	; 208
 d08:	31 93       	st	Z+, r19
 d0a:	de f6       	brtc	.-74     	; 0xcc2 <__ultoa_invert+0xe>
 d0c:	cf 01       	movw	r24, r30
 d0e:	08 95       	ret
 d10:	46 2f       	mov	r20, r22
 d12:	47 70       	andi	r20, 0x07	; 7
 d14:	40 5d       	subi	r20, 0xD0	; 208
 d16:	41 93       	st	Z+, r20
 d18:	b3 e0       	ldi	r27, 0x03	; 3
 d1a:	0f d0       	rcall	.+30     	; 0xd3a <__ultoa_invert+0x86>
 d1c:	c9 f7       	brne	.-14     	; 0xd10 <__ultoa_invert+0x5c>
 d1e:	f6 cf       	rjmp	.-20     	; 0xd0c <__ultoa_invert+0x58>
 d20:	46 2f       	mov	r20, r22
 d22:	4f 70       	andi	r20, 0x0F	; 15
 d24:	40 5d       	subi	r20, 0xD0	; 208
 d26:	4a 33       	cpi	r20, 0x3A	; 58
 d28:	18 f0       	brcs	.+6      	; 0xd30 <__ultoa_invert+0x7c>
 d2a:	49 5d       	subi	r20, 0xD9	; 217
 d2c:	31 fd       	sbrc	r19, 1
 d2e:	40 52       	subi	r20, 0x20	; 32
 d30:	41 93       	st	Z+, r20
 d32:	02 d0       	rcall	.+4      	; 0xd38 <__ultoa_invert+0x84>
 d34:	a9 f7       	brne	.-22     	; 0xd20 <__ultoa_invert+0x6c>
 d36:	ea cf       	rjmp	.-44     	; 0xd0c <__ultoa_invert+0x58>
 d38:	b4 e0       	ldi	r27, 0x04	; 4
 d3a:	a6 95       	lsr	r26
 d3c:	97 95       	ror	r25
 d3e:	87 95       	ror	r24
 d40:	77 95       	ror	r23
 d42:	67 95       	ror	r22
 d44:	ba 95       	dec	r27
 d46:	c9 f7       	brne	.-14     	; 0xd3a <__ultoa_invert+0x86>
 d48:	00 97       	sbiw	r24, 0x00	; 0
 d4a:	61 05       	cpc	r22, r1
 d4c:	71 05       	cpc	r23, r1
 d4e:	08 95       	ret
 d50:	9b 01       	movw	r18, r22
 d52:	ac 01       	movw	r20, r24
 d54:	0a 2e       	mov	r0, r26
 d56:	06 94       	lsr	r0
 d58:	57 95       	ror	r21
 d5a:	47 95       	ror	r20
 d5c:	37 95       	ror	r19
 d5e:	27 95       	ror	r18
 d60:	ba 95       	dec	r27
 d62:	c9 f7       	brne	.-14     	; 0xd56 <__ultoa_invert+0xa2>
 d64:	62 0f       	add	r22, r18
 d66:	73 1f       	adc	r23, r19
 d68:	84 1f       	adc	r24, r20
 d6a:	95 1f       	adc	r25, r21
 d6c:	a0 1d       	adc	r26, r0
 d6e:	08 95       	ret

00000d70 <__ctype_isfalse>:
 d70:	99 27       	eor	r25, r25
 d72:	88 27       	eor	r24, r24

00000d74 <__ctype_istrue>:
 d74:	08 95       	ret

00000d76 <__prologue_saves__>:
 d76:	2f 92       	push	r2
 d78:	3f 92       	push	r3
 d7a:	4f 92       	push	r4
 d7c:	5f 92       	push	r5
 d7e:	6f 92       	push	r6
 d80:	7f 92       	push	r7
 d82:	8f 92       	push	r8
 d84:	9f 92       	push	r9
 d86:	af 92       	push	r10
 d88:	bf 92       	push	r11
 d8a:	cf 92       	push	r12
 d8c:	df 92       	push	r13
 d8e:	ef 92       	push	r14
 d90:	ff 92       	push	r15
 d92:	0f 93       	push	r16
 d94:	1f 93       	push	r17
 d96:	cf 93       	push	r28
 d98:	df 93       	push	r29
 d9a:	cd b7       	in	r28, 0x3d	; 61
 d9c:	de b7       	in	r29, 0x3e	; 62
 d9e:	ca 1b       	sub	r28, r26
 da0:	db 0b       	sbc	r29, r27
 da2:	0f b6       	in	r0, 0x3f	; 63
 da4:	f8 94       	cli
 da6:	de bf       	out	0x3e, r29	; 62
 da8:	0f be       	out	0x3f, r0	; 63
 daa:	cd bf       	out	0x3d, r28	; 61
 dac:	09 94       	ijmp

00000dae <__epilogue_restores__>:
 dae:	2a 88       	ldd	r2, Y+18	; 0x12
 db0:	39 88       	ldd	r3, Y+17	; 0x11
 db2:	48 88       	ldd	r4, Y+16	; 0x10
 db4:	5f 84       	ldd	r5, Y+15	; 0x0f
 db6:	6e 84       	ldd	r6, Y+14	; 0x0e
 db8:	7d 84       	ldd	r7, Y+13	; 0x0d
 dba:	8c 84       	ldd	r8, Y+12	; 0x0c
 dbc:	9b 84       	ldd	r9, Y+11	; 0x0b
 dbe:	aa 84       	ldd	r10, Y+10	; 0x0a
 dc0:	b9 84       	ldd	r11, Y+9	; 0x09
 dc2:	c8 84       	ldd	r12, Y+8	; 0x08
 dc4:	df 80       	ldd	r13, Y+7	; 0x07
 dc6:	ee 80       	ldd	r14, Y+6	; 0x06
 dc8:	fd 80       	ldd	r15, Y+5	; 0x05
 dca:	0c 81       	ldd	r16, Y+4	; 0x04
 dcc:	1b 81       	ldd	r17, Y+3	; 0x03
 dce:	aa 81       	ldd	r26, Y+2	; 0x02
 dd0:	b9 81       	ldd	r27, Y+1	; 0x01
 dd2:	ce 0f       	add	r28, r30
 dd4:	d1 1d       	adc	r29, r1
 dd6:	0f b6       	in	r0, 0x3f	; 63
 dd8:	f8 94       	cli
 dda:	de bf       	out	0x3e, r29	; 62
 ddc:	0f be       	out	0x3f, r0	; 63
 dde:	cd bf       	out	0x3d, r28	; 61
 de0:	ed 01       	movw	r28, r26
 de2:	08 95       	ret

00000de4 <_exit>:
 de4:	f8 94       	cli

00000de6 <__stop_program>:
 de6:	ff cf       	rjmp	.-2      	; 0xde6 <__stop_program>
